

Microchip MPLAB XC8 Assembler V2.31 build 20201012212115 
                                                                                               Tue Feb 09 21:14:21 2021

Microchip MPLAB XC8 C Compiler v2.31 (Free license) build 20201012212115 Og1 
     1                           	processor	16F887
     2                           	pagewidth 120
     3                           	opt	flic
     4                           	psect	idataBANK0,global,class=CODE,delta=2,noexec
     5                           	psect	nvBANK0,global,class=BANK0,space=1,delta=1,noexec
     6                           	psect	cinit,global,class=CODE,merge=1,delta=2
     7                           	psect	bssCOMMON,global,class=COMMON,space=1,delta=1,noexec
     8                           	psect	bssBANK0,global,class=BANK0,space=1,delta=1,noexec
     9                           	psect	dataBANK0,global,class=BANK0,space=1,delta=1,noexec
    10                           	psect	inittext,global,class=CODE,delta=2
    11                           	psect	cstackCOMMON,global,class=COMMON,space=1,delta=1,noexec
    12                           	psect	cstackBANK0,global,class=BANK0,space=1,delta=1,noexec
    13                           	psect	maintext,global,class=CODE,split=1,delta=2
    14                           	psect	text1,local,class=CODE,merge=1,delta=2
    15                           	psect	text2,local,class=CODE,merge=1,delta=2
    16                           	psect	text3,local,class=CODE,merge=1,delta=2
    17                           	psect	text4,local,class=CODE,merge=1,delta=2,group=1
    18                           	psect	text5,local,class=CODE,merge=1,delta=2
    19                           	psect	text6,local,class=CODE,merge=1,delta=2
    20                           	psect	intentry,global,class=CODE,delta=2
    21                           	psect	config,global,abs,ovrld,class=CONFIG,space=4,delta=2,noexec
    22                           	dabs	1,0x7E,2
    23  0000                     
    24                           ; Version 2.20
    25                           ; Generated 12/02/2020 GMT
    26                           ; 
    27                           ; Copyright © 2020, Microchip Technology Inc. and its subsidiaries ("Microchip")
    28                           ; All rights reserved.
    29                           ; 
    30                           ; This software is developed by Microchip Technology Inc. and its subsidiaries ("Microch
      +                          ip").
    31                           ; 
    32                           ; Redistribution and use in source and binary forms, with or without modification, are
    33                           ; permitted provided that the following conditions are met:
    34                           ; 
    35                           ;     1. Redistributions of source code must retain the above copyright notice, this lis
      +                          t of
    36                           ;        conditions and the following disclaimer.
    37                           ; 
    38                           ;     2. Redistributions in binary form must reproduce the above copyright notice, this 
      +                          list
    39                           ;        of conditions and the following disclaimer in the documentation and/or other
    40                           ;        materials provided with the distribution.
    41                           ; 
    42                           ;     3. Microchip's name may not be used to endorse or promote products derived from th
      +                          is
    43                           ;        software without specific prior written permission.
    44                           ; 
    45                           ; THIS SOFTWARE IS PROVIDED BY MICROCHIP "AS IS" AND ANY EXPRESS OR IMPLIED WARRANTIES,
    46                           ; INCLUDING, BUT NOT LIMITED TO, THE IMPLIED WARRANTIES OF MERCHANTABILITY AND FITNESS F
      +                          OR
    47                           ; PURPOSE ARE DISCLAIMED.  IN NO EVENT SHALL MICROCHIP BE LIABLE FOR ANY DIRECT, INDIREC
      +                          T,
    48                           ; INCIDENTAL, SPECIAL, EXEMPLARY, OR CONSEQUENTIAL DAMAGES (INCLUDING BUT NOT LIMITED TO
    49                           ; PROCUREMENT OF SUBSTITUTE GOODS OR SERVICES; LOSS OF USE, DATA OR PROFITS; OR BUSINESS
    50                           ; INTERRUPTION) HOWSOEVER CAUSED AND ON ANY THEORY OF LIABILITY, WHETHER IN CONTRACT, ST
      +                          RICT
    51                           ; LIABILITY, OR TORT (INCLUDING NEGLIGENCE OR OTHERWISE) ARISING IN ANY WAY OUT OF THE U
      +                          SE OF
    52                           ; THIS SOFTWARE, EVEN IF ADVISED OF THE POSSIBILITY OF SUCH DAMAGE.
    53                           ; 
    54                           ; 
    55                           ; Code-generator required, PIC16F887 Definitions
    56                           ; 
    57                           ; SFR Addresses
    58  0000                     	;# 
    59  0001                     	;# 
    60  0002                     	;# 
    61  0003                     	;# 
    62  0004                     	;# 
    63  0005                     	;# 
    64  0006                     	;# 
    65  0007                     	;# 
    66  0008                     	;# 
    67  0009                     	;# 
    68  000A                     	;# 
    69  000B                     	;# 
    70  000C                     	;# 
    71  000D                     	;# 
    72  000E                     	;# 
    73  000E                     	;# 
    74  000F                     	;# 
    75  0010                     	;# 
    76  0011                     	;# 
    77  0012                     	;# 
    78  0013                     	;# 
    79  0014                     	;# 
    80  0015                     	;# 
    81  0015                     	;# 
    82  0016                     	;# 
    83  0017                     	;# 
    84  0018                     	;# 
    85  0019                     	;# 
    86  001A                     	;# 
    87  001B                     	;# 
    88  001B                     	;# 
    89  001C                     	;# 
    90  001D                     	;# 
    91  001E                     	;# 
    92  001F                     	;# 
    93  0081                     	;# 
    94  0085                     	;# 
    95  0086                     	;# 
    96  0087                     	;# 
    97  0088                     	;# 
    98  0089                     	;# 
    99  008C                     	;# 
   100  008D                     	;# 
   101  008E                     	;# 
   102  008F                     	;# 
   103  0090                     	;# 
   104  0091                     	;# 
   105  0092                     	;# 
   106  0093                     	;# 
   107  0093                     	;# 
   108  0093                     	;# 
   109  0094                     	;# 
   110  0095                     	;# 
   111  0096                     	;# 
   112  0097                     	;# 
   113  0098                     	;# 
   114  0099                     	;# 
   115  009A                     	;# 
   116  009B                     	;# 
   117  009C                     	;# 
   118  009D                     	;# 
   119  009E                     	;# 
   120  009F                     	;# 
   121  0105                     	;# 
   122  0107                     	;# 
   123  0108                     	;# 
   124  0109                     	;# 
   125  010C                     	;# 
   126  010C                     	;# 
   127  010D                     	;# 
   128  010E                     	;# 
   129  010F                     	;# 
   130  0185                     	;# 
   131  0187                     	;# 
   132  0188                     	;# 
   133  0189                     	;# 
   134  018C                     	;# 
   135  018D                     	;# 
   136  0000                     	;# 
   137  0001                     	;# 
   138  0002                     	;# 
   139  0003                     	;# 
   140  0004                     	;# 
   141  0005                     	;# 
   142  0006                     	;# 
   143  0007                     	;# 
   144  0008                     	;# 
   145  0009                     	;# 
   146  000A                     	;# 
   147  000B                     	;# 
   148  000C                     	;# 
   149  000D                     	;# 
   150  000E                     	;# 
   151  000E                     	;# 
   152  000F                     	;# 
   153  0010                     	;# 
   154  0011                     	;# 
   155  0012                     	;# 
   156  0013                     	;# 
   157  0014                     	;# 
   158  0015                     	;# 
   159  0015                     	;# 
   160  0016                     	;# 
   161  0017                     	;# 
   162  0018                     	;# 
   163  0019                     	;# 
   164  001A                     	;# 
   165  001B                     	;# 
   166  001B                     	;# 
   167  001C                     	;# 
   168  001D                     	;# 
   169  001E                     	;# 
   170  001F                     	;# 
   171  0081                     	;# 
   172  0085                     	;# 
   173  0086                     	;# 
   174  0087                     	;# 
   175  0088                     	;# 
   176  0089                     	;# 
   177  008C                     	;# 
   178  008D                     	;# 
   179  008E                     	;# 
   180  008F                     	;# 
   181  0090                     	;# 
   182  0091                     	;# 
   183  0092                     	;# 
   184  0093                     	;# 
   185  0093                     	;# 
   186  0093                     	;# 
   187  0094                     	;# 
   188  0095                     	;# 
   189  0096                     	;# 
   190  0097                     	;# 
   191  0098                     	;# 
   192  0099                     	;# 
   193  009A                     	;# 
   194  009B                     	;# 
   195  009C                     	;# 
   196  009D                     	;# 
   197  009E                     	;# 
   198  009F                     	;# 
   199  0105                     	;# 
   200  0107                     	;# 
   201  0108                     	;# 
   202  0109                     	;# 
   203  010C                     	;# 
   204  010C                     	;# 
   205  010D                     	;# 
   206  010E                     	;# 
   207  010F                     	;# 
   208  0185                     	;# 
   209  0187                     	;# 
   210  0188                     	;# 
   211  0189                     	;# 
   212  018C                     	;# 
   213  018D                     	;# 
   214  0000                     	;# 
   215  0001                     	;# 
   216  0002                     	;# 
   217  0003                     	;# 
   218  0004                     	;# 
   219  0005                     	;# 
   220  0006                     	;# 
   221  0007                     	;# 
   222  0008                     	;# 
   223  0009                     	;# 
   224  000A                     	;# 
   225  000B                     	;# 
   226  000C                     	;# 
   227  000D                     	;# 
   228  000E                     	;# 
   229  000E                     	;# 
   230  000F                     	;# 
   231  0010                     	;# 
   232  0011                     	;# 
   233  0012                     	;# 
   234  0013                     	;# 
   235  0014                     	;# 
   236  0015                     	;# 
   237  0015                     	;# 
   238  0016                     	;# 
   239  0017                     	;# 
   240  0018                     	;# 
   241  0019                     	;# 
   242  001A                     	;# 
   243  001B                     	;# 
   244  001B                     	;# 
   245  001C                     	;# 
   246  001D                     	;# 
   247  001E                     	;# 
   248  001F                     	;# 
   249  0081                     	;# 
   250  0085                     	;# 
   251  0086                     	;# 
   252  0087                     	;# 
   253  0088                     	;# 
   254  0089                     	;# 
   255  008C                     	;# 
   256  008D                     	;# 
   257  008E                     	;# 
   258  008F                     	;# 
   259  0090                     	;# 
   260  0091                     	;# 
   261  0092                     	;# 
   262  0093                     	;# 
   263  0093                     	;# 
   264  0093                     	;# 
   265  0094                     	;# 
   266  0095                     	;# 
   267  0096                     	;# 
   268  0097                     	;# 
   269  0098                     	;# 
   270  0099                     	;# 
   271  009A                     	;# 
   272  009B                     	;# 
   273  009C                     	;# 
   274  009D                     	;# 
   275  009E                     	;# 
   276  009F                     	;# 
   277  0105                     	;# 
   278  0107                     	;# 
   279  0108                     	;# 
   280  0109                     	;# 
   281  010C                     	;# 
   282  010C                     	;# 
   283  010D                     	;# 
   284  010E                     	;# 
   285  010F                     	;# 
   286  0185                     	;# 
   287  0187                     	;# 
   288  0188                     	;# 
   289  0189                     	;# 
   290  018C                     	;# 
   291  018D                     	;# 
   292  0000                     	;# 
   293  0001                     	;# 
   294  0002                     	;# 
   295  0003                     	;# 
   296  0004                     	;# 
   297  0005                     	;# 
   298  0006                     	;# 
   299  0007                     	;# 
   300  0008                     	;# 
   301  0009                     	;# 
   302  000A                     	;# 
   303  000B                     	;# 
   304  000C                     	;# 
   305  000D                     	;# 
   306  000E                     	;# 
   307  000E                     	;# 
   308  000F                     	;# 
   309  0010                     	;# 
   310  0011                     	;# 
   311  0012                     	;# 
   312  0013                     	;# 
   313  0014                     	;# 
   314  0015                     	;# 
   315  0015                     	;# 
   316  0016                     	;# 
   317  0017                     	;# 
   318  0018                     	;# 
   319  0019                     	;# 
   320  001A                     	;# 
   321  001B                     	;# 
   322  001B                     	;# 
   323  001C                     	;# 
   324  001D                     	;# 
   325  001E                     	;# 
   326  001F                     	;# 
   327  0081                     	;# 
   328  0085                     	;# 
   329  0086                     	;# 
   330  0087                     	;# 
   331  0088                     	;# 
   332  0089                     	;# 
   333  008C                     	;# 
   334  008D                     	;# 
   335  008E                     	;# 
   336  008F                     	;# 
   337  0090                     	;# 
   338  0091                     	;# 
   339  0092                     	;# 
   340  0093                     	;# 
   341  0093                     	;# 
   342  0093                     	;# 
   343  0094                     	;# 
   344  0095                     	;# 
   345  0096                     	;# 
   346  0097                     	;# 
   347  0098                     	;# 
   348  0099                     	;# 
   349  009A                     	;# 
   350  009B                     	;# 
   351  009C                     	;# 
   352  009D                     	;# 
   353  009E                     	;# 
   354  009F                     	;# 
   355  0105                     	;# 
   356  0107                     	;# 
   357  0108                     	;# 
   358  0109                     	;# 
   359  010C                     	;# 
   360  010C                     	;# 
   361  010D                     	;# 
   362  010E                     	;# 
   363  010F                     	;# 
   364  0185                     	;# 
   365  0187                     	;# 
   366  0188                     	;# 
   367  0189                     	;# 
   368  018C                     	;# 
   369  018D                     	;# 
   370                           
   371                           	psect	idataBANK0
   372  02BD                     __pidataBANK0:
   373                           
   374                           ;initializer for _numeros
   375  02BD  34C0               	retlw	192
   376  02BE  3400               	retlw	0
   377  02BF  34F9               	retlw	249
   378  02C0  3400               	retlw	0
   379  02C1  34A4               	retlw	164
   380  02C2  3400               	retlw	0
   381  02C3  34B0               	retlw	176
   382  02C4  3400               	retlw	0
   383  02C5  3492               	retlw	146
   384  02C6  3400               	retlw	0
   385  02C7  3482               	retlw	130
   386  02C8  3400               	retlw	0
   387  02C9  34B8               	retlw	184
   388  02CA  3400               	retlw	0
   389  02CB  34F8               	retlw	248
   390  02CC  3400               	retlw	0
   391  02CD  3490               	retlw	144
   392  02CE  3400               	retlw	0
   393  02CF  3488               	retlw	136
   394  02D0  3400               	retlw	0
   395  02D1  3488               	retlw	136
   396  02D2  3400               	retlw	0
   397  02D3  3483               	retlw	131
   398  02D4  3400               	retlw	0
   399  02D5  34C6               	retlw	198
   400  02D6  3400               	retlw	0
   401  02D7  34A1               	retlw	161
   402  02D8  3400               	retlw	0
   403  02D9  3486               	retlw	134
   404  02DA  3400               	retlw	0
   405  02DB  348E               	retlw	142
   406  02DC  3400               	retlw	0
   407                           
   408                           	psect	nvBANK0
   409  004C                     __pnvBANK0:
   410  004C                     _preloadt0:
   411  004C                     	ds	1
   412  0009                     _PORTE	set	9
   413  0006                     _PORTB	set	6
   414  0005                     _PORTA	set	5
   415  0007                     _PORTC	set	7
   416  0005                     _PORTAbits	set	5
   417  001F                     _ADCON0bits	set	31
   418  001E                     _ADRESH	set	30
   419  000C                     _PIR1bits	set	12
   420  0008                     _PORTD	set	8
   421  0006                     _PORTBbits	set	6
   422  000B                     _INTCONbits	set	11
   423  0086                     _TRISBbits	set	134
   424  0089                     _TRISEbits	set	137
   425  0085                     _TRISAbits	set	133
   426  008C                     _PIE1bits	set	140
   427  009F                     _ADCON1bits	set	159
   428  0081                     _OPTION_REGbits	set	129
   429  0096                     _IOCBbits	set	150
   430  0089                     _TRISE	set	137
   431  0088                     _TRISD	set	136
   432  0087                     _TRISC	set	135
   433  0086                     _TRISB	set	134
   434  0085                     _TRISA	set	133
   435  0189                     _ANSELHbits	set	393
   436  0188                     _ANSELbits	set	392
   437  0189                     _ANSELH	set	393
   438  0188                     _ANSEL	set	392
   439                           
   440                           	psect	cinit
   441  000F                     start_initialization:	
   442                           ; #config settings
   443                           
   444  000F                     __initialization:
   445                           
   446                           ; Initialize objects allocated to BANK0
   447  000F  1383               	bcf	3,7	;select IRP bank0
   448  0010  3040               	movlw	low (__pdataBANK0+32)
   449  0011  00FD               	movwf	btemp+-1
   450  0012  3002               	movlw	high __pidataBANK0
   451  0013  00FE               	movwf	btemp
   452  0014  30BD               	movlw	low __pidataBANK0
   453  0015  00FF               	movwf	btemp+1
   454  0016  3020               	movlw	low __pdataBANK0
   455  0017  0084               	movwf	4
   456  0018  120A  118A  22E1  120A  118A  	fcall	init_ram0
   457                           
   458                           ; Clear objects allocated to BANK0
   459  001D  01CA               	clrf	__pbssBANK0& (0+127)
   460  001E  01CB               	clrf	(__pbssBANK0+1)& (0+127)
   461                           
   462                           ; Clear objects allocated to COMMON
   463  001F  01F8               	clrf	__pbssCOMMON& (0+127)
   464  0020  01F9               	clrf	(__pbssCOMMON+1)& (0+127)
   465  0021  01FA               	clrf	(__pbssCOMMON+2)& (0+127)
   466  0022                     end_of_initialization:	
   467                           ;End of C runtime variable initialization code
   468                           
   469  0022                     __end_of__initialization:
   470  0022  0183               	clrf	3
   471  0023  120A  118A  297E   	ljmp	_main	;jump to C main() function
   472                           
   473                           	psect	bssCOMMON
   474  0078                     __pbssCOMMON:
   475  0078                     _CAMBIO:
   476  0078                     	ds	1
   477  0079                     _contador:
   478  0079                     	ds	1
   479  007A                     _resultado:
   480  007A                     	ds	1
   481                           
   482                           	psect	bssBANK0
   483  004A                     __pbssBANK0:
   484  004A                     _hexa1:
   485  004A                     	ds	1
   486  004B                     _hexa2:
   487  004B                     	ds	1
   488                           
   489                           	psect	dataBANK0
   490  0020                     __pdataBANK0:
   491  0020                     _numeros:
   492  0020                     	ds	32
   493                           
   494                           	psect	inittext
   495  02DD                     init_fetch0:	
   496                           ;	Called with low address in FSR and high address in W
   497                           
   498  02DD  087E               	movf	btemp,w
   499  02DE  008A               	movwf	10
   500  02DF  087F               	movf	btemp+1,w
   501  02E0  0082               	movwf	2
   502  02E1                     init_ram0:	
   503                           ;Called with:
   504                           ;	high address of idata address in btemp 
   505                           ;	low address of idata address in btemp+1 
   506                           ;	low address of data in FSR
   507                           ;	high address + 1 of data in btemp-1
   508                           
   509  02E1  120A  118A  22DD  120A  118A  	fcall	init_fetch0
   510  02E6  0080               	movwf	0
   511  02E7  0A84               	incf	4,f
   512  02E8  0804               	movf	4,w
   513  02E9  067D               	xorwf	btemp+-1,w
   514  02EA  1903               	btfsc	3,2
   515  02EB  3400               	retlw	0
   516  02EC  0AFF               	incf	btemp+1,f
   517  02ED  1903               	btfsc	3,2
   518  02EE  0AFE               	incf	btemp,f
   519  02EF  2AE1               	goto	init_ram0
   520                           
   521                           	psect	cstackCOMMON
   522  0070                     __pcstackCOMMON:
   523  0070                     ?_setup:
   524  0070                     ?_delay:	
   525                           ; 1 bytes @ 0x0
   526                           
   527  0070                     ?_isr:	
   528                           ; 1 bytes @ 0x0
   529                           
   530  0070                     ??_isr:	
   531                           ; 1 bytes @ 0x0
   532                           
   533  0070                     ?_main:	
   534                           ; 1 bytes @ 0x0
   535                           
   536  0070                     delay@n:	
   537                           ; 1 bytes @ 0x0
   538                           
   539                           
   540                           ; 1 bytes @ 0x0
   541  0070                     	ds	3
   542  0073                     ??_setup:
   543  0073                     ??_delay:	
   544                           ; 1 bytes @ 0x3
   545                           
   546  0073                     ?_ADC:	
   547                           ; 1 bytes @ 0x3
   548                           
   549  0073                     ?___awdiv:	
   550                           ; 1 bytes @ 0x3
   551                           
   552  0073                     ADC@justificado:	
   553                           ; 2 bytes @ 0x3
   554                           
   555  0073                     delay@i:	
   556                           ; 1 bytes @ 0x3
   557                           
   558  0073                     ___awdiv@divisor:	
   559                           ; 2 bytes @ 0x3
   560                           
   561                           
   562                           ; 2 bytes @ 0x3
   563  0073                     	ds	1
   564  0074                     ??_ADC:
   565                           
   566                           ; 1 bytes @ 0x4
   567  0074                     	ds	1
   568  0075                     delay@j:
   569  0075                     ___awdiv@dividend:	
   570                           ; 2 bytes @ 0x5
   571                           
   572                           
   573                           ; 2 bytes @ 0x5
   574  0075                     	ds	1
   575  0076                     ADC@ANA:
   576                           
   577                           ; 1 bytes @ 0x6
   578  0076                     	ds	1
   579  0077                     ??___awdiv:
   580                           
   581                           ; 1 bytes @ 0x7
   582  0077                     	ds	1
   583                           
   584                           	psect	cstackBANK0
   585  0040                     __pcstackBANK0:
   586  0040                     ___awdiv@counter:
   587                           
   588                           ; 1 bytes @ 0x0
   589  0040                     	ds	1
   590  0041                     ___awdiv@sign:
   591                           
   592                           ; 1 bytes @ 0x1
   593  0041                     	ds	1
   594  0042                     ___awdiv@quotient:
   595                           
   596                           ; 2 bytes @ 0x2
   597  0042                     	ds	2
   598  0044                     ?_SEGcodigo:
   599  0044                     SEGcodigo@contador:	
   600                           ; 1 bytes @ 0x4
   601                           
   602                           
   603                           ; 1 bytes @ 0x4
   604  0044                     	ds	1
   605  0045                     ??_SEGcodigo:
   606                           
   607                           ; 1 bytes @ 0x5
   608  0045                     	ds	3
   609  0048                     SEGcodigo@unidad:
   610                           
   611                           ; 1 bytes @ 0x8
   612  0048                     	ds	1
   613  0049                     ??_main:
   614                           
   615                           ; 1 bytes @ 0x9
   616  0049                     	ds	1
   617                           
   618                           	psect	maintext
   619  017E                     __pmaintext:	
   620 ;;
   621 ;;Main: autosize = 0, tempsize = 1, incstack = 0, save=0
   622 ;;
   623 ;; *************** function _main *****************
   624 ;; Defined at:
   625 ;;		line 96 in file "Lab2Digital.c"
   626 ;; Parameters:    Size  Location     Type
   627 ;;		None
   628 ;; Auto vars:     Size  Location     Type
   629 ;;		None
   630 ;; Return value:  Size  Location     Type
   631 ;;                  1    wreg      void 
   632 ;; Registers used:
   633 ;;		wreg, fsr0l, fsr0h, status,2, status,0, btemp+1, pclath, cstack
   634 ;; Tracked objects:
   635 ;;		On entry : B00/0
   636 ;;		On exit  : 0/0
   637 ;;		Unchanged: 0/0
   638 ;; Data sizes:     COMMON   BANK0   BANK1   BANK3   BANK2
   639 ;;      Params:         0       0       0       0       0
   640 ;;      Locals:         0       0       0       0       0
   641 ;;      Temps:          0       1       0       0       0
   642 ;;      Totals:         0       1       0       0       0
   643 ;;Total ram usage:        1 bytes
   644 ;; Hardware stack levels required when called:    3
   645 ;; This function calls:
   646 ;;		_ADC
   647 ;;		_SEGcodigo
   648 ;;		_delay
   649 ;;		_setup
   650 ;; This function is called by:
   651 ;;		Startup code after reset
   652 ;; This function uses a non-reentrant model
   653 ;;
   654                           
   655                           
   656                           ;psect for function _main
   657  017E                     _main:
   658  017E                     l1397:	
   659                           ;incstack = 0
   660                           ; Regs used in _main: [wreg-fsr0h+status,2+status,0+btemp+1+pclath+cstack]
   661                           
   662                           
   663                           ;Lab2Digital.c: 97:     setup();
   664  017E  120A  118A  2257  120A  118A  	fcall	_setup
   665  0183                     l1399:
   666                           
   667                           ;Lab2Digital.c: 98:     delay(5000);
   668  0183  3088               	movlw	136
   669  0184  120A  118A  2292  120A  118A  	fcall	_delay
   670  0189                     l1401:
   671                           
   672                           ;Lab2Digital.c: 99:     ADC(0, 0);
   673  0189  01F3               	clrf	ADC@justificado
   674  018A  3000               	movlw	0
   675  018B  120A  118A  2026  120A  118A  	fcall	_ADC
   676  0190                     l1403:
   677                           
   678                           ;Lab2Digital.c: 100:     ADCON0bits.GO_nDONE = 1;
   679  0190  1283               	bcf	3,5	;RP0=0, select bank0
   680  0191  1303               	bcf	3,6	;RP1=0, select bank0
   681  0192  149F               	bsf	31,1	;volatile
   682  0193                     l1405:
   683                           
   684                           ;Lab2Digital.c: 105:         if (CAMBIO == 1) {
   685  0193  0378               	decf	_CAMBIO,w
   686  0194  1D03               	btfss	3,2
   687  0195  2997               	goto	u671
   688  0196  2998               	goto	u670
   689  0197                     u671:
   690  0197  29A9               	goto	l1415
   691  0198                     u670:
   692  0198                     l1407:
   693                           
   694                           ;Lab2Digital.c: 107:             PORTAbits.RA3 = 0;
   695  0198  1185               	bcf	5,3	;volatile
   696  0199                     l1409:
   697                           
   698                           ;Lab2Digital.c: 108:             SEGcodigo(1, contador);
   699  0199  0879               	movf	_contador,w
   700  019A  00C9               	movwf	??_main
   701  019B  0849               	movf	??_main,w
   702  019C  00C4               	movwf	SEGcodigo@contador
   703  019D  3001               	movlw	1
   704  019E  120A  118A  2219  120A  118A  	fcall	_SEGcodigo
   705  01A3                     l1411:
   706                           
   707                           ;Lab2Digital.c: 109:             PORTAbits.RA4 = 1;
   708  01A3  1283               	bcf	3,5	;RP0=0, select bank0
   709  01A4  1303               	bcf	3,6	;RP1=0, select bank0
   710  01A5  1605               	bsf	5,4	;volatile
   711  01A6                     l1413:
   712                           
   713                           ;Lab2Digital.c: 110:             PORTC = resultado;
   714  01A6  087A               	movf	_resultado,w
   715  01A7  0087               	movwf	7	;volatile
   716                           
   717                           ;Lab2Digital.c: 114:         } else if (CAMBIO == 0) {
   718  01A8  2993               	goto	l1405
   719  01A9                     l1415:
   720  01A9  0878               	movf	_CAMBIO,w
   721  01AA  1D03               	btfss	3,2
   722  01AB  29AD               	goto	u681
   723  01AC  29AE               	goto	u680
   724  01AD                     u681:
   725  01AD  29BD               	goto	l1425
   726  01AE                     u680:
   727  01AE                     l1417:
   728                           
   729                           ;Lab2Digital.c: 116:             PORTAbits.RA4 = 0;
   730  01AE  1205               	bcf	5,4	;volatile
   731  01AF                     l1419:
   732                           
   733                           ;Lab2Digital.c: 117:             SEGcodigo(0, contador);
   734  01AF  0879               	movf	_contador,w
   735  01B0  00C9               	movwf	??_main
   736  01B1  0849               	movf	??_main,w
   737  01B2  00C4               	movwf	SEGcodigo@contador
   738  01B3  3000               	movlw	0
   739  01B4  120A  118A  2219  120A  118A  	fcall	_SEGcodigo
   740  01B9                     l1421:
   741                           
   742                           ;Lab2Digital.c: 118:             PORTAbits.RA3 = 1;
   743  01B9  1283               	bcf	3,5	;RP0=0, select bank0
   744  01BA  1303               	bcf	3,6	;RP1=0, select bank0
   745  01BB  1585               	bsf	5,3	;volatile
   746  01BC  29A6               	goto	l1413
   747  01BD                     l1425:
   748  01BD  0879               	movf	_contador,w
   749  01BE  00C9               	movwf	??_main
   750  01BF  0A08               	incf	8,w	;volatile
   751  01C0  29C3               	goto	u694
   752  01C1                     u695:
   753  01C1  1003               	clrc
   754  01C2  0CC9               	rrf	??_main,f
   755  01C3                     u694:
   756  01C3  3EFF               	addlw	-1
   757  01C4  1D03               	skipz
   758  01C5  29C1               	goto	u695
   759  01C6  0849               	movf	??_main,w
   760  01C7  1903               	btfsc	3,2
   761  01C8  29CA               	goto	u701
   762  01C9  29CB               	goto	u700
   763  01CA                     u701:
   764  01CA  29CD               	goto	l87
   765  01CB                     u700:
   766  01CB                     l1427:
   767                           
   768                           ;Lab2Digital.c: 125:             PORTAbits.RA2 = 1;
   769  01CB  1505               	bsf	5,2	;volatile
   770                           
   771                           ;Lab2Digital.c: 127:         } else {
   772  01CC  2993               	goto	l1405
   773  01CD                     l87:
   774                           
   775                           ;Lab2Digital.c: 128:             PORTAbits.RA2 = 0;
   776  01CD  1105               	bcf	5,2	;volatile
   777  01CE  2993               	goto	l1405
   778  01CF  120A  118A  280C   	ljmp	start
   779  01D2                     __end_of_main:
   780                           
   781                           	psect	text1
   782  0257                     __ptext1:	
   783 ;; *************** function _setup *****************
   784 ;; Defined at:
   785 ;;		line 143 in file "Lab2Digital.c"
   786 ;; Parameters:    Size  Location     Type
   787 ;;		None
   788 ;; Auto vars:     Size  Location     Type
   789 ;;		None
   790 ;; Return value:  Size  Location     Type
   791 ;;                  1    wreg      void 
   792 ;; Registers used:
   793 ;;		wreg, status,2, status,0
   794 ;; Tracked objects:
   795 ;;		On entry : 0/0
   796 ;;		On exit  : 0/0
   797 ;;		Unchanged: 0/0
   798 ;; Data sizes:     COMMON   BANK0   BANK1   BANK3   BANK2
   799 ;;      Params:         0       0       0       0       0
   800 ;;      Locals:         0       0       0       0       0
   801 ;;      Temps:          1       0       0       0       0
   802 ;;      Totals:         1       0       0       0       0
   803 ;;Total ram usage:        1 bytes
   804 ;; Hardware stack levels used:    1
   805 ;; Hardware stack levels required when called:    1
   806 ;; This function calls:
   807 ;;		Nothing
   808 ;; This function is called by:
   809 ;;		_main
   810 ;; This function uses a non-reentrant model
   811 ;;
   812                           
   813                           
   814                           ;psect for function _setup
   815  0257                     _setup:
   816  0257                     l1107:	
   817                           ;incstack = 0
   818                           ; Regs used in _setup: [wreg+status,2+status,0]
   819                           
   820                           
   821                           ;Lab2Digital.c: 146:     ANSEL = 0;
   822  0257  1683               	bsf	3,5	;RP0=1, select bank3
   823  0258  1703               	bsf	3,6	;RP1=1, select bank3
   824  0259  0188               	clrf	8	;volatile
   825                           
   826                           ;Lab2Digital.c: 147:     ANSELH = 0;
   827  025A  0189               	clrf	9	;volatile
   828                           
   829                           ;Lab2Digital.c: 148:     TRISA = 0;
   830  025B  1683               	bsf	3,5	;RP0=1, select bank1
   831  025C  1303               	bcf	3,6	;RP1=0, select bank1
   832  025D  0185               	clrf	5	;volatile
   833                           
   834                           ;Lab2Digital.c: 149:     PORTA = 0;
   835  025E  1283               	bcf	3,5	;RP0=0, select bank0
   836  025F  1303               	bcf	3,6	;RP1=0, select bank0
   837  0260  0185               	clrf	5	;volatile
   838  0261                     l1109:
   839                           
   840                           ;Lab2Digital.c: 150:     TRISB = 0b00000011;
   841  0261  3003               	movlw	3
   842  0262  1683               	bsf	3,5	;RP0=1, select bank1
   843  0263  1303               	bcf	3,6	;RP1=0, select bank1
   844  0264  0086               	movwf	6	;volatile
   845  0265                     l1111:
   846                           
   847                           ;Lab2Digital.c: 151:     PORTB = 0;
   848  0265  1283               	bcf	3,5	;RP0=0, select bank0
   849  0266  1303               	bcf	3,6	;RP1=0, select bank0
   850  0267  0186               	clrf	6	;volatile
   851  0268                     l1113:
   852                           
   853                           ;Lab2Digital.c: 152:     TRISC = 0;
   854  0268  1683               	bsf	3,5	;RP0=1, select bank1
   855  0269  1303               	bcf	3,6	;RP1=0, select bank1
   856  026A  0187               	clrf	7	;volatile
   857  026B                     l1115:
   858                           
   859                           ;Lab2Digital.c: 153:     PORTC = 0;
   860  026B  1283               	bcf	3,5	;RP0=0, select bank0
   861  026C  1303               	bcf	3,6	;RP1=0, select bank0
   862  026D  0187               	clrf	7	;volatile
   863  026E                     l1117:
   864                           
   865                           ;Lab2Digital.c: 154:     TRISD = 0;
   866  026E  1683               	bsf	3,5	;RP0=1, select bank1
   867  026F  1303               	bcf	3,6	;RP1=0, select bank1
   868  0270  0188               	clrf	8	;volatile
   869  0271                     l1119:
   870                           
   871                           ;Lab2Digital.c: 155:     PORTD = 0;
   872  0271  1283               	bcf	3,5	;RP0=0, select bank0
   873  0272  1303               	bcf	3,6	;RP1=0, select bank0
   874  0273  0188               	clrf	8	;volatile
   875  0274                     l1121:
   876                           
   877                           ;Lab2Digital.c: 156:     TRISE = 0;
   878  0274  1683               	bsf	3,5	;RP0=1, select bank1
   879  0275  1303               	bcf	3,6	;RP1=0, select bank1
   880  0276  0189               	clrf	9	;volatile
   881  0277                     l1123:
   882                           
   883                           ;Lab2Digital.c: 157:     PORTE = 0;
   884  0277  1283               	bcf	3,5	;RP0=0, select bank0
   885  0278  1303               	bcf	3,6	;RP1=0, select bank0
   886  0279  0189               	clrf	9	;volatile
   887  027A                     l1125:
   888                           
   889                           ;Lab2Digital.c: 158:     INTCONbits.GIE = 1;
   890  027A  178B               	bsf	11,7	;volatile
   891  027B                     l1127:
   892                           
   893                           ;Lab2Digital.c: 159:     INTCONbits.PEIE = 1;
   894  027B  170B               	bsf	11,6	;volatile
   895  027C                     l1129:
   896                           
   897                           ;Lab2Digital.c: 160:     INTCONbits.RBIE = 1;
   898  027C  158B               	bsf	11,3	;volatile
   899  027D                     l1131:
   900                           
   901                           ;Lab2Digital.c: 161:     INTCONbits.RBIF = 0;
   902  027D  100B               	bcf	11,0	;volatile
   903  027E                     l1133:
   904                           
   905                           ;Lab2Digital.c: 162:     IOCBbits.IOCB0 = 1;
   906  027E  1683               	bsf	3,5	;RP0=1, select bank1
   907  027F  1303               	bcf	3,6	;RP1=0, select bank1
   908  0280  1416               	bsf	22,0	;volatile
   909  0281                     l1135:
   910                           
   911                           ;Lab2Digital.c: 163:     IOCBbits.IOCB1 = 1;
   912  0281  1496               	bsf	22,1	;volatile
   913  0282                     l1137:
   914                           
   915                           ;Lab2Digital.c: 166:     INTCONbits.T0IE = 1;
   916  0282  168B               	bsf	11,5	;volatile
   917  0283                     l1139:
   918                           
   919                           ;Lab2Digital.c: 167:     INTCONbits.T0IF = 0;
   920  0283  110B               	bcf	11,2	;volatile
   921  0284                     l1141:
   922                           
   923                           ;Lab2Digital.c: 168:     OPTION_REGbits.T0CS = 0;
   924  0284  1281               	bcf	1,5	;volatile
   925  0285                     l1143:
   926                           
   927                           ;Lab2Digital.c: 169:     OPTION_REGbits.PSA = 0;
   928  0285  1181               	bcf	1,3	;volatile
   929  0286                     l1145:
   930                           
   931                           ;Lab2Digital.c: 170:     OPTION_REGbits.PS = 0b001;
   932  0286  0801               	movf	1,w	;volatile
   933  0287  39F8               	andlw	-8
   934  0288  3801               	iorlw	1
   935  0289  0081               	movwf	1	;volatile
   936  028A                     l1147:
   937                           
   938                           ;Lab2Digital.c: 171:     preloadt0 = 255;
   939  028A  30FF               	movlw	255
   940  028B  00F3               	movwf	??_setup
   941  028C  0873               	movf	??_setup,w
   942  028D  1283               	bcf	3,5	;RP0=0, select bank0
   943  028E  1303               	bcf	3,6	;RP1=0, select bank0
   944  028F  00CC               	movwf	_preloadt0
   945  0290                     l1149:
   946                           
   947                           ;Lab2Digital.c: 173:     contador = 0;
   948  0290  01F9               	clrf	_contador
   949  0291                     l94:
   950  0291  0008               	return
   951  0292                     __end_of_setup:
   952                           
   953                           	psect	text2
   954  0292                     __ptext2:	
   955 ;; *************** function _delay *****************
   956 ;; Defined at:
   957 ;;		line 177 in file "Lab2Digital.c"
   958 ;; Parameters:    Size  Location     Type
   959 ;;  n               1    wreg     unsigned char 
   960 ;; Auto vars:     Size  Location     Type
   961 ;;  n               1    0[COMMON] unsigned char 
   962 ;;  j               2    5[COMMON] int 
   963 ;;  i               2    3[COMMON] int 
   964 ;; Return value:  Size  Location     Type
   965 ;;                  1    wreg      void 
   966 ;; Registers used:
   967 ;;		wreg, status,2, btemp+1
   968 ;; Tracked objects:
   969 ;;		On entry : 0/0
   970 ;;		On exit  : 0/0
   971 ;;		Unchanged: 0/0
   972 ;; Data sizes:     COMMON   BANK0   BANK1   BANK3   BANK2
   973 ;;      Params:         0       0       0       0       0
   974 ;;      Locals:         4       0       0       0       0
   975 ;;      Temps:          0       0       0       0       0
   976 ;;      Totals:         4       0       0       0       0
   977 ;;Total ram usage:        4 bytes
   978 ;; Hardware stack levels used:    1
   979 ;; Hardware stack levels required when called:    1
   980 ;; This function calls:
   981 ;;		Nothing
   982 ;; This function is called by:
   983 ;;		_main
   984 ;; This function uses a non-reentrant model
   985 ;;
   986                           
   987                           
   988                           ;psect for function _delay
   989  0292                     _delay:
   990  0292                     l853:	
   991                           ;incstack = 0
   992                           ; Regs used in _delay: [wreg+status,2+btemp+1]
   993                           
   994                           
   995                           ;Lab2Digital.c: 178:     for (int i = 0; i < 255; i++) {
   996  0292  01F3               	clrf	delay@i
   997  0293  01F4               	clrf	delay@i+1
   998  0294                     l859:
   999                           
  1000                           ;Lab2Digital.c: 179:         for (int j = 0; j < 255; j++) {
  1001  0294  01F5               	clrf	delay@j
  1002  0295  01F6               	clrf	delay@j+1
  1003  0296                     l865:
  1004                           
  1005                           ;Lab2Digital.c: 180:         }
  1006  0296  3001               	movlw	1
  1007  0297  07F5               	addwf	delay@j,f
  1008  0298  1803               	skipnc
  1009  0299  0AF6               	incf	delay@j+1,f
  1010  029A  3000               	movlw	0
  1011  029B  07F6               	addwf	delay@j+1,f
  1012  029C                     l867:
  1013  029C  0876               	movf	delay@j+1,w
  1014  029D  3A80               	xorlw	128
  1015  029E  00FF               	movwf	btemp+1
  1016  029F  3080               	movlw	128
  1017  02A0  027F               	subwf	btemp+1,w
  1018  02A1  1D03               	skipz
  1019  02A2  2AA5               	goto	u115
  1020  02A3  30FF               	movlw	255
  1021  02A4  0275               	subwf	delay@j,w
  1022  02A5                     u115:
  1023  02A5  1C03               	skipc
  1024  02A6  2AA8               	goto	u111
  1025  02A7  2AA9               	goto	u110
  1026  02A8                     u111:
  1027  02A8  2A96               	goto	l865
  1028  02A9                     u110:
  1029  02A9                     l869:
  1030                           
  1031                           ;Lab2Digital.c: 181:     }
  1032  02A9  3001               	movlw	1
  1033  02AA  07F3               	addwf	delay@i,f
  1034  02AB  1803               	skipnc
  1035  02AC  0AF4               	incf	delay@i+1,f
  1036  02AD  3000               	movlw	0
  1037  02AE  07F4               	addwf	delay@i+1,f
  1038  02AF                     l871:
  1039  02AF  0874               	movf	delay@i+1,w
  1040  02B0  3A80               	xorlw	128
  1041  02B1  00FF               	movwf	btemp+1
  1042  02B2  3080               	movlw	128
  1043  02B3  027F               	subwf	btemp+1,w
  1044  02B4  1D03               	skipz
  1045  02B5  2AB8               	goto	u125
  1046  02B6  30FF               	movlw	255
  1047  02B7  0273               	subwf	delay@i,w
  1048  02B8                     u125:
  1049  02B8  1C03               	skipc
  1050  02B9  2ABB               	goto	u121
  1051  02BA  2ABC               	goto	u120
  1052  02BB                     u121:
  1053  02BB  2A94               	goto	l859
  1054  02BC                     u120:
  1055  02BC                     l101:
  1056  02BC  0008               	return
  1057  02BD                     __end_of_delay:
  1058                           
  1059                           	psect	text3
  1060  0219                     __ptext3:	
  1061 ;; *************** function _SEGcodigo *****************
  1062 ;; Defined at:
  1063 ;;		line 3 in file "SEGcodigo.c"
  1064 ;; Parameters:    Size  Location     Type
  1065 ;;  unidad          1    wreg     unsigned char 
  1066 ;;  contador        1    4[BANK0 ] unsigned char 
  1067 ;; Auto vars:     Size  Location     Type
  1068 ;;  unidad          1    8[BANK0 ] unsigned char 
  1069 ;; Return value:  Size  Location     Type
  1070 ;;                  1    wreg      void 
  1071 ;; Registers used:
  1072 ;;		wreg, fsr0l, fsr0h, status,2, status,0, pclath, cstack
  1073 ;; Tracked objects:
  1074 ;;		On entry : 0/0
  1075 ;;		On exit  : 0/0
  1076 ;;		Unchanged: 0/0
  1077 ;; Data sizes:     COMMON   BANK0   BANK1   BANK3   BANK2
  1078 ;;      Params:         0       1       0       0       0
  1079 ;;      Locals:         0       1       0       0       0
  1080 ;;      Temps:          0       3       0       0       0
  1081 ;;      Totals:         0       5       0       0       0
  1082 ;;Total ram usage:        5 bytes
  1083 ;; Hardware stack levels used:    1
  1084 ;; Hardware stack levels required when called:    2
  1085 ;; This function calls:
  1086 ;;		___awdiv
  1087 ;; This function is called by:
  1088 ;;		_main
  1089 ;; This function uses a non-reentrant model
  1090 ;;
  1091                           
  1092                           
  1093                           ;psect for function _SEGcodigo
  1094  0219                     _SEGcodigo:
  1095                           
  1096                           ;incstack = 0
  1097                           ; Regs used in _SEGcodigo: [wreg-fsr0h+status,2+status,0+pclath+cstack]
  1098                           ;SEGcodigo@unidad stored from wreg
  1099  0219  1283               	bcf	3,5	;RP0=0, select bank0
  1100  021A  1303               	bcf	3,6	;RP1=0, select bank0
  1101  021B  00C8               	movwf	SEGcodigo@unidad
  1102  021C                     l1385:
  1103                           
  1104                           ;SEGcodigo.c: 5:     if (unidad == 0) {
  1105  021C  0848               	movf	SEGcodigo@unidad,w
  1106  021D  1D03               	btfss	3,2
  1107  021E  2A20               	goto	u651
  1108  021F  2A21               	goto	u650
  1109  0220                     u651:
  1110  0220  2A31               	goto	l1391
  1111  0221                     u650:
  1112  0221                     l1387:
  1113                           
  1114                           ;SEGcodigo.c: 6:         hexa2 = contador % 16;
  1115  0221  0844               	movf	SEGcodigo@contador,w
  1116  0222  390F               	andlw	15
  1117  0223  00C5               	movwf	??_SEGcodigo
  1118  0224  0845               	movf	??_SEGcodigo,w
  1119  0225  00CB               	movwf	_hexa2
  1120  0226                     l1389:
  1121                           
  1122                           ;SEGcodigo.c: 7:         resultado=numeros[hexa2];
  1123  0226  084B               	movf	_hexa2,w
  1124  0227  00C5               	movwf	??_SEGcodigo
  1125  0228  0745               	addwf	??_SEGcodigo,w
  1126  0229  3E20               	addlw	(low (_numeros| 0))& (0+255)
  1127  022A  0084               	movwf	4
  1128  022B  1383               	bcf	3,7	;select IRP bank0
  1129  022C  0800               	movf	0,w
  1130  022D  00C6               	movwf	??_SEGcodigo+1
  1131  022E  0846               	movf	??_SEGcodigo+1,w
  1132  022F  00FA               	movwf	_resultado
  1133                           
  1134                           ;SEGcodigo.c: 8:     } else if (unidad == 1) {
  1135  0230  2A56               	goto	l173
  1136  0231                     l1391:
  1137  0231  0348               	decf	SEGcodigo@unidad,w
  1138  0232  1D03               	btfss	3,2
  1139  0233  2A35               	goto	u661
  1140  0234  2A36               	goto	u660
  1141  0235                     u661:
  1142  0235  2A56               	goto	l173
  1143  0236                     u660:
  1144  0236                     l1393:
  1145                           
  1146                           ;SEGcodigo.c: 9:         hexa1 = contador / 16;
  1147  0236  3010               	movlw	16
  1148  0237  00F3               	movwf	___awdiv@divisor
  1149  0238  3000               	movlw	0
  1150  0239  00F4               	movwf	___awdiv@divisor+1
  1151  023A  0844               	movf	SEGcodigo@contador,w
  1152  023B  00C5               	movwf	??_SEGcodigo
  1153  023C  01C6               	clrf	??_SEGcodigo+1
  1154  023D  0845               	movf	??_SEGcodigo,w
  1155  023E  00F5               	movwf	___awdiv@dividend
  1156  023F  0846               	movf	??_SEGcodigo+1,w
  1157  0240  00F6               	movwf	___awdiv@dividend+1
  1158  0241  120A  118A  2115  120A  118A  	fcall	___awdiv
  1159  0246  0873               	movf	?___awdiv,w
  1160  0247  1283               	bcf	3,5	;RP0=0, select bank0
  1161  0248  1303               	bcf	3,6	;RP1=0, select bank0
  1162  0249  00C7               	movwf	??_SEGcodigo+2
  1163  024A  0847               	movf	??_SEGcodigo+2,w
  1164  024B  00CA               	movwf	_hexa1
  1165  024C                     l1395:
  1166                           
  1167                           ;SEGcodigo.c: 10:         resultado=numeros[hexa1];
  1168  024C  084A               	movf	_hexa1,w
  1169  024D  00C5               	movwf	??_SEGcodigo
  1170  024E  0745               	addwf	??_SEGcodigo,w
  1171  024F  3E20               	addlw	(low (_numeros| 0))& (0+255)
  1172  0250  0084               	movwf	4
  1173  0251  1383               	bcf	3,7	;select IRP bank0
  1174  0252  0800               	movf	0,w
  1175  0253  00C6               	movwf	??_SEGcodigo+1
  1176  0254  0846               	movf	??_SEGcodigo+1,w
  1177  0255  00FA               	movwf	_resultado
  1178  0256                     l173:
  1179  0256  0008               	return
  1180  0257                     __end_of_SEGcodigo:
  1181                           
  1182                           	psect	text4
  1183  0115                     __ptext4:	
  1184 ;; *************** function ___awdiv *****************
  1185 ;; Defined at:
  1186 ;;		line 5 in file "C:\Program Files\Microchip\xc8\v2.31\pic\sources\c90\common\awdiv.c"
  1187 ;; Parameters:    Size  Location     Type
  1188 ;;  divisor         2    3[COMMON] int 
  1189 ;;  dividend        2    5[COMMON] int 
  1190 ;; Auto vars:     Size  Location     Type
  1191 ;;  quotient        2    2[BANK0 ] int 
  1192 ;;  sign            1    1[BANK0 ] unsigned char 
  1193 ;;  counter         1    0[BANK0 ] unsigned char 
  1194 ;; Return value:  Size  Location     Type
  1195 ;;                  2    3[COMMON] int 
  1196 ;; Registers used:
  1197 ;;		wreg, status,2, status,0
  1198 ;; Tracked objects:
  1199 ;;		On entry : 0/0
  1200 ;;		On exit  : 0/0
  1201 ;;		Unchanged: 0/0
  1202 ;; Data sizes:     COMMON   BANK0   BANK1   BANK3   BANK2
  1203 ;;      Params:         4       0       0       0       0
  1204 ;;      Locals:         0       4       0       0       0
  1205 ;;      Temps:          1       0       0       0       0
  1206 ;;      Totals:         5       4       0       0       0
  1207 ;;Total ram usage:        9 bytes
  1208 ;; Hardware stack levels used:    1
  1209 ;; Hardware stack levels required when called:    1
  1210 ;; This function calls:
  1211 ;;		Nothing
  1212 ;; This function is called by:
  1213 ;;		_SEGcodigo
  1214 ;; This function uses a non-reentrant model
  1215 ;;
  1216                           
  1217                           
  1218                           ;psect for function ___awdiv
  1219  0115                     ___awdiv:
  1220  0115                     l1341:	
  1221                           ;incstack = 0
  1222                           ; Regs used in ___awdiv: [wreg+status,2+status,0]
  1223                           
  1224  0115  1283               	bcf	3,5	;RP0=0, select bank0
  1225  0116  1303               	bcf	3,6	;RP1=0, select bank0
  1226  0117  01C1               	clrf	___awdiv@sign
  1227  0118                     l1343:
  1228  0118  1FF4               	btfss	___awdiv@divisor+1,7
  1229  0119  291B               	goto	u551
  1230  011A  291C               	goto	u550
  1231  011B                     u551:
  1232  011B  2923               	goto	l1349
  1233  011C                     u550:
  1234  011C                     l1345:
  1235  011C  09F3               	comf	___awdiv@divisor,f
  1236  011D  09F4               	comf	___awdiv@divisor+1,f
  1237  011E  0AF3               	incf	___awdiv@divisor,f
  1238  011F  1903               	skipnz
  1239  0120  0AF4               	incf	___awdiv@divisor+1,f
  1240  0121                     l1347:
  1241  0121  01C1               	clrf	___awdiv@sign
  1242  0122  0AC1               	incf	___awdiv@sign,f
  1243  0123                     l1349:
  1244  0123  1FF6               	btfss	___awdiv@dividend+1,7
  1245  0124  2926               	goto	u561
  1246  0125  2927               	goto	u560
  1247  0126                     u561:
  1248  0126  2930               	goto	l1355
  1249  0127                     u560:
  1250  0127                     l1351:
  1251  0127  09F5               	comf	___awdiv@dividend,f
  1252  0128  09F6               	comf	___awdiv@dividend+1,f
  1253  0129  0AF5               	incf	___awdiv@dividend,f
  1254  012A  1903               	skipnz
  1255  012B  0AF6               	incf	___awdiv@dividend+1,f
  1256  012C                     l1353:
  1257  012C  3001               	movlw	1
  1258  012D  00F7               	movwf	??___awdiv
  1259  012E  0877               	movf	??___awdiv,w
  1260  012F  06C1               	xorwf	___awdiv@sign,f
  1261  0130                     l1355:
  1262  0130  01C2               	clrf	___awdiv@quotient
  1263  0131  01C3               	clrf	___awdiv@quotient+1
  1264  0132                     l1357:
  1265  0132  0873               	movf	___awdiv@divisor,w
  1266  0133  0474               	iorwf	___awdiv@divisor+1,w
  1267  0134  1903               	btfsc	3,2
  1268  0135  2937               	goto	u571
  1269  0136  2938               	goto	u570
  1270  0137                     u571:
  1271  0137  296F               	goto	l1377
  1272  0138                     u570:
  1273  0138                     l1359:
  1274  0138  01C0               	clrf	___awdiv@counter
  1275  0139  0AC0               	incf	___awdiv@counter,f
  1276  013A  2946               	goto	l1365
  1277  013B                     l1361:
  1278  013B  3001               	movlw	1
  1279  013C                     u585:
  1280  013C  1003               	clrc
  1281  013D  0DF3               	rlf	___awdiv@divisor,f
  1282  013E  0DF4               	rlf	___awdiv@divisor+1,f
  1283  013F  3EFF               	addlw	-1
  1284  0140  1D03               	skipz
  1285  0141  293C               	goto	u585
  1286  0142                     l1363:
  1287  0142  3001               	movlw	1
  1288  0143  00F7               	movwf	??___awdiv
  1289  0144  0877               	movf	??___awdiv,w
  1290  0145  07C0               	addwf	___awdiv@counter,f
  1291  0146                     l1365:
  1292  0146  1FF4               	btfss	___awdiv@divisor+1,7
  1293  0147  2949               	goto	u591
  1294  0148  294A               	goto	u590
  1295  0149                     u591:
  1296  0149  293B               	goto	l1361
  1297  014A                     u590:
  1298  014A                     l1367:
  1299  014A  3001               	movlw	1
  1300  014B                     u605:
  1301  014B  1003               	clrc
  1302  014C  0DC2               	rlf	___awdiv@quotient,f
  1303  014D  0DC3               	rlf	___awdiv@quotient+1,f
  1304  014E  3EFF               	addlw	-1
  1305  014F  1D03               	skipz
  1306  0150  294B               	goto	u605
  1307  0151  0874               	movf	___awdiv@divisor+1,w
  1308  0152  0276               	subwf	___awdiv@dividend+1,w
  1309  0153  1D03               	skipz
  1310  0154  2957               	goto	u615
  1311  0155  0873               	movf	___awdiv@divisor,w
  1312  0156  0275               	subwf	___awdiv@dividend,w
  1313  0157                     u615:
  1314  0157  1C03               	skipc
  1315  0158  295A               	goto	u611
  1316  0159  295B               	goto	u610
  1317  015A                     u611:
  1318  015A  2962               	goto	l1373
  1319  015B                     u610:
  1320  015B                     l1369:
  1321  015B  0873               	movf	___awdiv@divisor,w
  1322  015C  02F5               	subwf	___awdiv@dividend,f
  1323  015D  0874               	movf	___awdiv@divisor+1,w
  1324  015E  1C03               	skipc
  1325  015F  03F6               	decf	___awdiv@dividend+1,f
  1326  0160  02F6               	subwf	___awdiv@dividend+1,f
  1327  0161                     l1371:
  1328  0161  1442               	bsf	___awdiv@quotient,0
  1329  0162                     l1373:
  1330  0162  3001               	movlw	1
  1331  0163                     u625:
  1332  0163  1003               	clrc
  1333  0164  0CF4               	rrf	___awdiv@divisor+1,f
  1334  0165  0CF3               	rrf	___awdiv@divisor,f
  1335  0166  3EFF               	addlw	-1
  1336  0167  1D03               	skipz
  1337  0168  2963               	goto	u625
  1338  0169                     l1375:
  1339  0169  3001               	movlw	1
  1340  016A  02C0               	subwf	___awdiv@counter,f
  1341  016B  1D03               	btfss	3,2
  1342  016C  296E               	goto	u631
  1343  016D  296F               	goto	u630
  1344  016E                     u631:
  1345  016E  294A               	goto	l1367
  1346  016F                     u630:
  1347  016F                     l1377:
  1348  016F  0841               	movf	___awdiv@sign,w
  1349  0170  1903               	btfsc	3,2
  1350  0171  2973               	goto	u641
  1351  0172  2974               	goto	u640
  1352  0173                     u641:
  1353  0173  2979               	goto	l1381
  1354  0174                     u640:
  1355  0174                     l1379:
  1356  0174  09C2               	comf	___awdiv@quotient,f
  1357  0175  09C3               	comf	___awdiv@quotient+1,f
  1358  0176  0AC2               	incf	___awdiv@quotient,f
  1359  0177  1903               	skipnz
  1360  0178  0AC3               	incf	___awdiv@quotient+1,f
  1361  0179                     l1381:
  1362  0179  0843               	movf	___awdiv@quotient+1,w
  1363  017A  00F4               	movwf	?___awdiv+1
  1364  017B  0842               	movf	___awdiv@quotient,w
  1365  017C  00F3               	movwf	?___awdiv
  1366  017D                     l412:
  1367  017D  0008               	return
  1368  017E                     __end_of___awdiv:
  1369                           
  1370                           	psect	text5
  1371  0026                     __ptext5:	
  1372 ;; *************** function _ADC *****************
  1373 ;; Defined at:
  1374 ;;		line 3 in file "ADC.c"
  1375 ;; Parameters:    Size  Location     Type
  1376 ;;  ANA             1    wreg     unsigned char 
  1377 ;;  justificado     1    3[COMMON] unsigned char 
  1378 ;; Auto vars:     Size  Location     Type
  1379 ;;  ANA             1    6[COMMON] unsigned char 
  1380 ;; Return value:  Size  Location     Type
  1381 ;;                  1    wreg      void 
  1382 ;; Registers used:
  1383 ;;		wreg, fsr0l, fsr0h, status,2, status,0
  1384 ;; Tracked objects:
  1385 ;;		On entry : 0/0
  1386 ;;		On exit  : 0/0
  1387 ;;		Unchanged: 0/0
  1388 ;; Data sizes:     COMMON   BANK0   BANK1   BANK3   BANK2
  1389 ;;      Params:         1       0       0       0       0
  1390 ;;      Locals:         1       0       0       0       0
  1391 ;;      Temps:          2       0       0       0       0
  1392 ;;      Totals:         4       0       0       0       0
  1393 ;;Total ram usage:        4 bytes
  1394 ;; Hardware stack levels used:    1
  1395 ;; Hardware stack levels required when called:    1
  1396 ;; This function calls:
  1397 ;;		Nothing
  1398 ;; This function is called by:
  1399 ;;		_main
  1400 ;; This function uses a non-reentrant model
  1401 ;;
  1402                           
  1403                           
  1404                           ;psect for function _ADC
  1405  0026                     _ADC:
  1406                           
  1407                           ;incstack = 0
  1408                           ; Regs used in _ADC: [wreg-fsr0h+status,2+status,0]
  1409                           ;ADC@ANA stored from wreg
  1410  0026  00F6               	movwf	ADC@ANA
  1411  0027                     l1151:
  1412                           
  1413                           ;ADC.c: 6:     ADCON0bits.ADON = 1;
  1414  0027  1283               	bcf	3,5	;RP0=0, select bank0
  1415  0028  1303               	bcf	3,6	;RP1=0, select bank0
  1416  0029  141F               	bsf	31,0	;volatile
  1417  002A                     l1153:
  1418                           
  1419                           ;ADC.c: 7:     ADCON0bits.ADCS = 0b10;
  1420  002A  081F               	movf	31,w	;volatile
  1421  002B  393F               	andlw	-193
  1422  002C  3880               	iorlw	128
  1423  002D  009F               	movwf	31	;volatile
  1424  002E                     l1155:
  1425                           
  1426                           ;ADC.c: 8:     ADCON1bits.VCFG1 = 0;
  1427  002E  1683               	bsf	3,5	;RP0=1, select bank1
  1428  002F  1303               	bcf	3,6	;RP1=0, select bank1
  1429  0030  129F               	bcf	31,5	;volatile
  1430  0031                     l1157:
  1431                           
  1432                           ;ADC.c: 9:     ADCON1bits.VCFG0 = 0;
  1433  0031  121F               	bcf	31,4	;volatile
  1434  0032                     l1159:
  1435                           
  1436                           ;ADC.c: 10:     PIE1bits.ADIE = 1;
  1437  0032  170C               	bsf	12,6	;volatile
  1438  0033                     l1161:
  1439                           
  1440                           ;ADC.c: 11:     PIR1bits.ADIF = 0;
  1441  0033  1283               	bcf	3,5	;RP0=0, select bank0
  1442  0034  1303               	bcf	3,6	;RP1=0, select bank0
  1443  0035  130C               	bcf	12,6	;volatile
  1444                           
  1445                           ;ADC.c: 13:     if (justificado == 0) {
  1446  0036  0873               	movf	ADC@justificado,w
  1447  0037  1D03               	btfss	3,2
  1448  0038  283A               	goto	u391
  1449  0039  283B               	goto	u390
  1450  003A                     u391:
  1451  003A  290C               	goto	l1199
  1452  003B                     u390:
  1453  003B                     l1163:
  1454                           
  1455                           ;ADC.c: 14:         ADCON1bits.ADFM = 0;
  1456  003B  1683               	bsf	3,5	;RP0=1, select bank1
  1457  003C  1303               	bcf	3,6	;RP1=0, select bank1
  1458  003D  139F               	bcf	31,7	;volatile
  1459                           
  1460                           ;ADC.c: 15:         switch (ANA) {
  1461  003E  28D8               	goto	l1197
  1462  003F                     l124:	
  1463                           ;ADC.c: 16:             case 0:
  1464                           
  1465                           
  1466                           ;ADC.c: 17:                 TRISAbits.TRISA0 = 1;
  1467  003F  1405               	bsf	5,0	;volatile
  1468                           
  1469                           ;ADC.c: 18:                 ANSELbits.ANS0 = 1;
  1470  0040  1683               	bsf	3,5	;RP0=1, select bank3
  1471  0041  1703               	bsf	3,6	;RP1=1, select bank3
  1472  0042  1408               	bsf	8,0	;volatile
  1473  0043                     l1165:
  1474                           
  1475                           ;ADC.c: 19:                 ADCON0bits.CHS = 0b0000;
  1476  0043  30C3               	movlw	-61
  1477  0044  1283               	bcf	3,5	;RP0=0, select bank0
  1478  0045  1303               	bcf	3,6	;RP1=0, select bank0
  1479  0046  059F               	andwf	31,f	;volatile
  1480                           
  1481                           ;ADC.c: 20:                 break;
  1482  0047  2914               	goto	l159
  1483  0048                     l126:	
  1484                           ;ADC.c: 21:             case 1:
  1485                           
  1486                           
  1487                           ;ADC.c: 22:                 TRISAbits.TRISA1 = 1;
  1488  0048  1485               	bsf	5,1	;volatile
  1489                           
  1490                           ;ADC.c: 23:                 ANSELbits.ANS1 = 1;
  1491  0049  1683               	bsf	3,5	;RP0=1, select bank3
  1492  004A  1703               	bsf	3,6	;RP1=1, select bank3
  1493  004B  1488               	bsf	8,1	;volatile
  1494  004C                     l1167:
  1495                           
  1496                           ;ADC.c: 24:                 ADCON0bits.CHS = 0b0001;
  1497  004C  1283               	bcf	3,5	;RP0=0, select bank0
  1498  004D  1303               	bcf	3,6	;RP1=0, select bank0
  1499  004E  081F               	movf	31,w	;volatile
  1500  004F  39C3               	andlw	-61
  1501  0050  3804               	iorlw	4
  1502  0051  009F               	movwf	31	;volatile
  1503                           
  1504                           ;ADC.c: 25:                 break;
  1505  0052  2914               	goto	l159
  1506  0053                     l127:	
  1507                           ;ADC.c: 26:             case 2:
  1508                           
  1509                           
  1510                           ;ADC.c: 27:                 TRISAbits.TRISA2 = 1;
  1511  0053  1505               	bsf	5,2	;volatile
  1512                           
  1513                           ;ADC.c: 28:                 ANSELbits.ANS2 = 1;
  1514  0054  1683               	bsf	3,5	;RP0=1, select bank3
  1515  0055  1703               	bsf	3,6	;RP1=1, select bank3
  1516  0056  1508               	bsf	8,2	;volatile
  1517  0057                     l1169:
  1518                           
  1519                           ;ADC.c: 29:                 ADCON0bits.CHS = 0b0010;
  1520  0057  1283               	bcf	3,5	;RP0=0, select bank0
  1521  0058  1303               	bcf	3,6	;RP1=0, select bank0
  1522  0059  081F               	movf	31,w	;volatile
  1523  005A  39C3               	andlw	-61
  1524  005B  3808               	iorlw	8
  1525  005C  009F               	movwf	31	;volatile
  1526                           
  1527                           ;ADC.c: 30:                 break;
  1528  005D  2914               	goto	l159
  1529  005E                     l128:	
  1530                           ;ADC.c: 31:             case 3:
  1531                           
  1532                           
  1533                           ;ADC.c: 32:                 TRISAbits.TRISA3 = 1;
  1534  005E  1585               	bsf	5,3	;volatile
  1535                           
  1536                           ;ADC.c: 33:                 ANSELbits.ANS3 = 1;
  1537  005F  1683               	bsf	3,5	;RP0=1, select bank3
  1538  0060  1703               	bsf	3,6	;RP1=1, select bank3
  1539  0061  1588               	bsf	8,3	;volatile
  1540  0062                     l1171:
  1541                           
  1542                           ;ADC.c: 34:                 ADCON0bits.CHS = 0b0011;
  1543  0062  1283               	bcf	3,5	;RP0=0, select bank0
  1544  0063  1303               	bcf	3,6	;RP1=0, select bank0
  1545  0064  081F               	movf	31,w	;volatile
  1546  0065  39C3               	andlw	-61
  1547  0066  380C               	iorlw	12
  1548  0067  009F               	movwf	31	;volatile
  1549                           
  1550                           ;ADC.c: 35:                 break;
  1551  0068  2914               	goto	l159
  1552  0069                     l129:	
  1553                           ;ADC.c: 36:             case 4:
  1554                           
  1555                           
  1556                           ;ADC.c: 37:                 TRISAbits.TRISA5 = 1;
  1557  0069  1685               	bsf	5,5	;volatile
  1558                           
  1559                           ;ADC.c: 38:                 ANSELbits.ANS4 = 1;
  1560  006A  1683               	bsf	3,5	;RP0=1, select bank3
  1561  006B  1703               	bsf	3,6	;RP1=1, select bank3
  1562  006C  1608               	bsf	8,4	;volatile
  1563  006D                     l1173:
  1564                           
  1565                           ;ADC.c: 39:                 ADCON0bits.CHS = 0b0100;
  1566  006D  1283               	bcf	3,5	;RP0=0, select bank0
  1567  006E  1303               	bcf	3,6	;RP1=0, select bank0
  1568  006F  081F               	movf	31,w	;volatile
  1569  0070  39C3               	andlw	-61
  1570  0071  3810               	iorlw	16
  1571  0072  009F               	movwf	31	;volatile
  1572                           
  1573                           ;ADC.c: 40:                 break;
  1574  0073  2914               	goto	l159
  1575  0074                     l130:	
  1576                           ;ADC.c: 41:             case 5:
  1577                           
  1578                           
  1579                           ;ADC.c: 42:                 TRISEbits.TRISE0 = 1;
  1580  0074  1409               	bsf	9,0	;volatile
  1581                           
  1582                           ;ADC.c: 43:                 ANSELbits.ANS5 = 1;
  1583  0075  1683               	bsf	3,5	;RP0=1, select bank3
  1584  0076  1703               	bsf	3,6	;RP1=1, select bank3
  1585  0077  1688               	bsf	8,5	;volatile
  1586  0078                     l1175:
  1587                           
  1588                           ;ADC.c: 44:                 ADCON0bits.CHS = 0b0101;
  1589  0078  1283               	bcf	3,5	;RP0=0, select bank0
  1590  0079  1303               	bcf	3,6	;RP1=0, select bank0
  1591  007A  081F               	movf	31,w	;volatile
  1592  007B  39C3               	andlw	-61
  1593  007C  3814               	iorlw	20
  1594  007D  009F               	movwf	31	;volatile
  1595                           
  1596                           ;ADC.c: 45:                 break;
  1597  007E  2914               	goto	l159
  1598  007F                     l131:	
  1599                           ;ADC.c: 46:             case 6:
  1600                           
  1601                           
  1602                           ;ADC.c: 47:                 TRISEbits.TRISE1 = 1;
  1603  007F  1489               	bsf	9,1	;volatile
  1604                           
  1605                           ;ADC.c: 48:                 ANSELbits.ANS6 = 1;
  1606  0080  1683               	bsf	3,5	;RP0=1, select bank3
  1607  0081  1703               	bsf	3,6	;RP1=1, select bank3
  1608  0082  1708               	bsf	8,6	;volatile
  1609  0083                     l1177:
  1610                           
  1611                           ;ADC.c: 49:                 ADCON0bits.CHS = 0b0110;
  1612  0083  1283               	bcf	3,5	;RP0=0, select bank0
  1613  0084  1303               	bcf	3,6	;RP1=0, select bank0
  1614  0085  081F               	movf	31,w	;volatile
  1615  0086  39C3               	andlw	-61
  1616  0087  3818               	iorlw	24
  1617  0088  009F               	movwf	31	;volatile
  1618  0089                     l1179:
  1619                           
  1620                           ;ADC.c: 51:                 TRISEbits.TRISE2 = 1;
  1621  0089  1683               	bsf	3,5	;RP0=1, select bank1
  1622  008A  1303               	bcf	3,6	;RP1=0, select bank1
  1623  008B  1509               	bsf	9,2	;volatile
  1624  008C                     l1181:
  1625                           
  1626                           ;ADC.c: 52:                 ANSELbits.ANS7 = 1;
  1627  008C  1683               	bsf	3,5	;RP0=1, select bank3
  1628  008D  1703               	bsf	3,6	;RP1=1, select bank3
  1629  008E  1788               	bsf	8,7	;volatile
  1630                           
  1631                           ;ADC.c: 53:                 ADCON0bits.CHS = 0b0111;
  1632  008F  1283               	bcf	3,5	;RP0=0, select bank0
  1633  0090  1303               	bcf	3,6	;RP1=0, select bank0
  1634  0091  081F               	movf	31,w	;volatile
  1635  0092  39C3               	andlw	-61
  1636  0093  381C               	iorlw	28
  1637  0094  009F               	movwf	31	;volatile
  1638                           
  1639                           ;ADC.c: 54:                 break;
  1640  0095  2914               	goto	l159
  1641  0096                     l133:	
  1642                           ;ADC.c: 55:             case 8:
  1643                           
  1644                           
  1645                           ;ADC.c: 56:                 TRISBbits.TRISB2 = 1;
  1646  0096  1506               	bsf	6,2	;volatile
  1647                           
  1648                           ;ADC.c: 57:                 ANSELHbits.ANS8 = 1;
  1649  0097  1683               	bsf	3,5	;RP0=1, select bank3
  1650  0098  1703               	bsf	3,6	;RP1=1, select bank3
  1651  0099  1409               	bsf	9,0	;volatile
  1652  009A                     l1183:
  1653                           
  1654                           ;ADC.c: 58:                 ADCON0bits.CHS = 0b1000;
  1655  009A  1283               	bcf	3,5	;RP0=0, select bank0
  1656  009B  1303               	bcf	3,6	;RP1=0, select bank0
  1657  009C  081F               	movf	31,w	;volatile
  1658  009D  39C3               	andlw	-61
  1659  009E  3820               	iorlw	32
  1660  009F  009F               	movwf	31	;volatile
  1661                           
  1662                           ;ADC.c: 59:                 break;
  1663  00A0  2914               	goto	l159
  1664  00A1                     l134:	
  1665                           ;ADC.c: 60:             case 9:
  1666                           
  1667                           
  1668                           ;ADC.c: 61:                 TRISBbits.TRISB3 = 1;
  1669  00A1  1586               	bsf	6,3	;volatile
  1670                           
  1671                           ;ADC.c: 62:                 ANSELHbits.ANS9 = 1;
  1672  00A2  1683               	bsf	3,5	;RP0=1, select bank3
  1673  00A3  1703               	bsf	3,6	;RP1=1, select bank3
  1674  00A4  1489               	bsf	9,1	;volatile
  1675  00A5                     l1185:
  1676                           
  1677                           ;ADC.c: 63:                 ADCON0bits.CHS = 0b1001;
  1678  00A5  1283               	bcf	3,5	;RP0=0, select bank0
  1679  00A6  1303               	bcf	3,6	;RP1=0, select bank0
  1680  00A7  081F               	movf	31,w	;volatile
  1681  00A8  39C3               	andlw	-61
  1682  00A9  3824               	iorlw	36
  1683  00AA  009F               	movwf	31	;volatile
  1684                           
  1685                           ;ADC.c: 64:                 break;
  1686  00AB  2914               	goto	l159
  1687  00AC                     l135:	
  1688                           ;ADC.c: 65:             case 10:
  1689                           
  1690                           
  1691                           ;ADC.c: 66:                 TRISBbits.TRISB1 = 1;
  1692  00AC  1486               	bsf	6,1	;volatile
  1693                           
  1694                           ;ADC.c: 67:                 ANSELHbits.ANS10 = 1;
  1695  00AD  1683               	bsf	3,5	;RP0=1, select bank3
  1696  00AE  1703               	bsf	3,6	;RP1=1, select bank3
  1697  00AF  1509               	bsf	9,2	;volatile
  1698  00B0                     l1187:
  1699                           
  1700                           ;ADC.c: 68:                 ADCON0bits.CHS = 0b1010;
  1701  00B0  1283               	bcf	3,5	;RP0=0, select bank0
  1702  00B1  1303               	bcf	3,6	;RP1=0, select bank0
  1703  00B2  081F               	movf	31,w	;volatile
  1704  00B3  39C3               	andlw	-61
  1705  00B4  3828               	iorlw	40
  1706  00B5  009F               	movwf	31	;volatile
  1707                           
  1708                           ;ADC.c: 69:                 break;
  1709  00B6  2914               	goto	l159
  1710  00B7                     l136:	
  1711                           ;ADC.c: 70:             case 11:
  1712                           
  1713                           
  1714                           ;ADC.c: 71:                 TRISBbits.TRISB4 = 1;
  1715  00B7  1606               	bsf	6,4	;volatile
  1716                           
  1717                           ;ADC.c: 72:                 ANSELHbits.ANS11 = 1;
  1718  00B8  1683               	bsf	3,5	;RP0=1, select bank3
  1719  00B9  1703               	bsf	3,6	;RP1=1, select bank3
  1720  00BA  1589               	bsf	9,3	;volatile
  1721  00BB                     l1189:
  1722                           
  1723                           ;ADC.c: 73:                 ADCON0bits.CHS = 0b1011;
  1724  00BB  1283               	bcf	3,5	;RP0=0, select bank0
  1725  00BC  1303               	bcf	3,6	;RP1=0, select bank0
  1726  00BD  081F               	movf	31,w	;volatile
  1727  00BE  39C3               	andlw	-61
  1728  00BF  382C               	iorlw	44
  1729  00C0  009F               	movwf	31	;volatile
  1730                           
  1731                           ;ADC.c: 74:                 break;
  1732  00C1  2914               	goto	l159
  1733  00C2                     l137:	
  1734                           ;ADC.c: 75:             case 12:
  1735                           
  1736                           
  1737                           ;ADC.c: 76:                 TRISBbits.TRISB0 = 1;
  1738  00C2  1406               	bsf	6,0	;volatile
  1739                           
  1740                           ;ADC.c: 77:                 ANSELHbits.ANS12 = 1;
  1741  00C3  1683               	bsf	3,5	;RP0=1, select bank3
  1742  00C4  1703               	bsf	3,6	;RP1=1, select bank3
  1743  00C5  1609               	bsf	9,4	;volatile
  1744  00C6                     l1191:
  1745                           
  1746                           ;ADC.c: 78:                 ADCON0bits.CHS = 0b1100;
  1747  00C6  1283               	bcf	3,5	;RP0=0, select bank0
  1748  00C7  1303               	bcf	3,6	;RP1=0, select bank0
  1749  00C8  081F               	movf	31,w	;volatile
  1750  00C9  39C3               	andlw	-61
  1751  00CA  3830               	iorlw	48
  1752  00CB  009F               	movwf	31	;volatile
  1753                           
  1754                           ;ADC.c: 79:                 break;
  1755  00CC  2914               	goto	l159
  1756  00CD                     l138:	
  1757                           ;ADC.c: 80:             case 13:
  1758                           
  1759                           
  1760                           ;ADC.c: 81:                 TRISBbits.TRISB5 = 1;
  1761  00CD  1686               	bsf	6,5	;volatile
  1762                           
  1763                           ;ADC.c: 82:                 ANSELHbits.ANS13 = 1;
  1764  00CE  1683               	bsf	3,5	;RP0=1, select bank3
  1765  00CF  1703               	bsf	3,6	;RP1=1, select bank3
  1766  00D0  1689               	bsf	9,5	;volatile
  1767  00D1                     l1193:
  1768                           
  1769                           ;ADC.c: 83:                 ADCON0bits.CHS = 0b1101;
  1770  00D1  1283               	bcf	3,5	;RP0=0, select bank0
  1771  00D2  1303               	bcf	3,6	;RP1=0, select bank0
  1772  00D3  081F               	movf	31,w	;volatile
  1773  00D4  39C3               	andlw	-61
  1774  00D5  3834               	iorlw	52
  1775  00D6  009F               	movwf	31	;volatile
  1776                           
  1777                           ;ADC.c: 84:                 break;
  1778  00D7  2914               	goto	l159
  1779  00D8                     l1197:
  1780  00D8  0876               	movf	ADC@ANA,w
  1781  00D9  00F4               	movwf	??_ADC
  1782  00DA  01F5               	clrf	??_ADC+1
  1783                           
  1784                           ; Switch on 2 bytes has been partitioned into a top level switch of size 1, and 1 sub-sw
      +                          itches
  1785                           ; Switch size 1, requested type "simple"
  1786                           ; Number of cases is 1, Range of values is 0 to 0
  1787                           ; switch strategies available:
  1788                           ; Name         Instructions Cycles
  1789                           ; simple_byte            4     3 (average)
  1790                           ; direct_byte           11     8 (fixed)
  1791                           ; jumptable            260     6 (fixed)
  1792                           ;	Chosen strategy is simple_byte
  1793  00DB  0875               	movf	??_ADC+1,w
  1794  00DC  3A00               	xorlw	0	; case 0
  1795  00DD  1903               	skipnz
  1796  00DE  28E0               	goto	l1449
  1797  00DF  2914               	goto	l159
  1798  00E0                     l1449:
  1799                           
  1800                           ; Switch size 1, requested type "simple"
  1801                           ; Number of cases is 14, Range of values is 0 to 13
  1802                           ; switch strategies available:
  1803                           ; Name         Instructions Cycles
  1804                           ; simple_byte           43    22 (average)
  1805                           ; direct_byte           50     8 (fixed)
  1806                           ; jumptable            260     6 (fixed)
  1807                           ;	Chosen strategy is simple_byte
  1808  00E0  0874               	movf	??_ADC,w
  1809  00E1  3A00               	xorlw	0	; case 0
  1810  00E2  1903               	skipnz
  1811  00E3  283F               	goto	l124
  1812  00E4  3A01               	xorlw	1	; case 1
  1813  00E5  1903               	skipnz
  1814  00E6  2848               	goto	l126
  1815  00E7  3A03               	xorlw	3	; case 2
  1816  00E8  1903               	skipnz
  1817  00E9  2853               	goto	l127
  1818  00EA  3A01               	xorlw	1	; case 3
  1819  00EB  1903               	skipnz
  1820  00EC  285E               	goto	l128
  1821  00ED  3A07               	xorlw	7	; case 4
  1822  00EE  1903               	skipnz
  1823  00EF  2869               	goto	l129
  1824  00F0  3A01               	xorlw	1	; case 5
  1825  00F1  1903               	skipnz
  1826  00F2  2874               	goto	l130
  1827  00F3  3A03               	xorlw	3	; case 6
  1828  00F4  1903               	skipnz
  1829  00F5  287F               	goto	l131
  1830  00F6  3A01               	xorlw	1	; case 7
  1831  00F7  1903               	skipnz
  1832  00F8  2889               	goto	l1179
  1833  00F9  3A0F               	xorlw	15	; case 8
  1834  00FA  1903               	skipnz
  1835  00FB  2896               	goto	l133
  1836  00FC  3A01               	xorlw	1	; case 9
  1837  00FD  1903               	skipnz
  1838  00FE  28A1               	goto	l134
  1839  00FF  3A03               	xorlw	3	; case 10
  1840  0100  1903               	skipnz
  1841  0101  28AC               	goto	l135
  1842  0102  3A01               	xorlw	1	; case 11
  1843  0103  1903               	skipnz
  1844  0104  28B7               	goto	l136
  1845  0105  3A07               	xorlw	7	; case 12
  1846  0106  1903               	skipnz
  1847  0107  28C2               	goto	l137
  1848  0108  3A01               	xorlw	1	; case 13
  1849  0109  1903               	skipnz
  1850  010A  28CD               	goto	l138
  1851  010B  2914               	goto	l159
  1852  010C                     l1199:
  1853  010C  0373               	decf	ADC@justificado,w
  1854  010D  1D03               	btfss	3,2
  1855  010E  2910               	goto	u401
  1856  010F  2911               	goto	u400
  1857  0110                     u401:
  1858  0110  2914               	goto	l159
  1859  0111                     u400:
  1860  0111                     l1201:
  1861                           
  1862                           ;ADC.c: 89:         ADCON1bits.ADFM = 1;
  1863  0111  1683               	bsf	3,5	;RP0=1, select bank1
  1864  0112  1303               	bcf	3,6	;RP1=0, select bank1
  1865  0113  179F               	bsf	31,7	;volatile
  1866  0114                     l159:	
  1867                           ;ADC.c: 90:         switch (ANA) {
  1868                           
  1869  0114  0008               	return
  1870  0115                     __end_of_ADC:
  1871                           
  1872                           	psect	text6
  1873  01D2                     __ptext6:	
  1874 ;; *************** function _isr *****************
  1875 ;; Defined at:
  1876 ;;		line 58 in file "Lab2Digital.c"
  1877 ;; Parameters:    Size  Location     Type
  1878 ;;		None
  1879 ;; Auto vars:     Size  Location     Type
  1880 ;;		None
  1881 ;; Return value:  Size  Location     Type
  1882 ;;                  1    wreg      void 
  1883 ;; Registers used:
  1884 ;;		wreg, status,2, status,0
  1885 ;; Tracked objects:
  1886 ;;		On entry : 0/0
  1887 ;;		On exit  : 0/0
  1888 ;;		Unchanged: 0/0
  1889 ;; Data sizes:     COMMON   BANK0   BANK1   BANK3   BANK2
  1890 ;;      Params:         0       0       0       0       0
  1891 ;;      Locals:         0       0       0       0       0
  1892 ;;      Temps:          3       0       0       0       0
  1893 ;;      Totals:         3       0       0       0       0
  1894 ;;Total ram usage:        3 bytes
  1895 ;; Hardware stack levels used:    1
  1896 ;; This function calls:
  1897 ;;		Nothing
  1898 ;; This function is called by:
  1899 ;;		Interrupt level 1
  1900 ;; This function uses a non-reentrant model
  1901 ;;
  1902                           
  1903                           
  1904                           ;psect for function _isr
  1905  01D2                     _isr:
  1906  01D2                     i1l1255:
  1907  01D2  1C0B               	btfss	11,0	;volatile
  1908  01D3  29D5               	goto	u43_21
  1909  01D4  29D6               	goto	u43_20
  1910  01D5                     u43_21:
  1911  01D5  29E8               	goto	i1l1265
  1912  01D6                     u43_20:
  1913  01D6                     i1l1257:
  1914  01D6  1283               	bcf	3,5	;RP0=0, select bank0
  1915  01D7  1303               	bcf	3,6	;RP1=0, select bank0
  1916  01D8  1C06               	btfss	6,0	;volatile
  1917  01D9  29DB               	goto	u44_21
  1918  01DA  29DC               	goto	u44_20
  1919  01DB                     u44_21:
  1920  01DB  29E1               	goto	i1l68
  1921  01DC                     u44_20:
  1922  01DC                     i1l1259:
  1923  01DC  3001               	movlw	1
  1924  01DD  00F0               	movwf	??_isr
  1925  01DE  0870               	movf	??_isr,w
  1926  01DF  0788               	addwf	8,f	;volatile
  1927  01E0  29E7               	goto	i1l1263
  1928  01E1                     i1l68:
  1929  01E1  1C86               	btfss	6,1	;volatile
  1930  01E2  29E4               	goto	u45_21
  1931  01E3  29E5               	goto	u45_20
  1932  01E4                     u45_21:
  1933  01E4  29E7               	goto	i1l1263
  1934  01E5                     u45_20:
  1935  01E5                     i1l1261:
  1936  01E5  3001               	movlw	1
  1937  01E6  0288               	subwf	8,f	;volatile
  1938  01E7                     i1l1263:
  1939  01E7  100B               	bcf	11,0	;volatile
  1940  01E8                     i1l1265:
  1941  01E8  1283               	bcf	3,5	;RP0=0, select bank0
  1942  01E9  1303               	bcf	3,6	;RP1=0, select bank0
  1943  01EA  1F0C               	btfss	12,6	;volatile
  1944  01EB  29ED               	goto	u46_21
  1945  01EC  29EE               	goto	u46_20
  1946  01ED                     u46_21:
  1947  01ED  29F4               	goto	i1l1273
  1948  01EE                     u46_20:
  1949  01EE                     i1l1267:
  1950  01EE  081E               	movf	30,w	;volatile
  1951  01EF  00F0               	movwf	??_isr
  1952  01F0  0870               	movf	??_isr,w
  1953  01F1  00F9               	movwf	_contador
  1954  01F2                     i1l1269:
  1955  01F2  130C               	bcf	12,6	;volatile
  1956  01F3                     i1l1271:
  1957  01F3  149F               	bsf	31,1	;volatile
  1958  01F4                     i1l1273:
  1959  01F4  1D0B               	btfss	11,2	;volatile
  1960  01F5  29F7               	goto	u47_21
  1961  01F6  29F8               	goto	u47_20
  1962  01F7                     u47_21:
  1963  01F7  2A12               	goto	i1l77
  1964  01F8                     u47_20:
  1965  01F8                     i1l1275:
  1966  01F8  3001               	movlw	1
  1967  01F9  02CC               	subwf	_preloadt0,f
  1968  01FA                     i1l1277:
  1969  01FA  110B               	bcf	11,2	;volatile
  1970  01FB  084C               	movf	_preloadt0,w
  1971  01FC  1D03               	btfss	3,2
  1972  01FD  29FF               	goto	u48_21
  1973  01FE  2A00               	goto	u48_20
  1974  01FF                     u48_21:
  1975  01FF  2A12               	goto	i1l77
  1976  0200                     u48_20:
  1977  0200                     i1l1279:
  1978  0200  0378               	decf	_CAMBIO,w
  1979  0201  1D03               	btfss	3,2
  1980  0202  2A04               	goto	u49_21
  1981  0203  2A05               	goto	u49_20
  1982  0204                     u49_21:
  1983  0204  2A07               	goto	i1l1283
  1984  0205                     u49_20:
  1985  0205                     i1l1281:
  1986  0205  01F8               	clrf	_CAMBIO
  1987  0206  2A0E               	goto	i1l1287
  1988  0207                     i1l1283:
  1989  0207  0878               	movf	_CAMBIO,w
  1990  0208  1D03               	btfss	3,2
  1991  0209  2A0B               	goto	u50_21
  1992  020A  2A0C               	goto	u50_20
  1993  020B                     u50_21:
  1994  020B  2A0E               	goto	i1l1287
  1995  020C                     u50_20:
  1996  020C                     i1l1285:
  1997  020C  01F8               	clrf	_CAMBIO
  1998  020D  0AF8               	incf	_CAMBIO,f
  1999  020E                     i1l1287:
  2000  020E  3003               	movlw	3
  2001  020F  00F0               	movwf	??_isr
  2002  0210  0870               	movf	??_isr,w
  2003  0211  00CC               	movwf	_preloadt0
  2004  0212                     i1l77:
  2005  0212  0872               	movf	??_isr+2,w
  2006  0213  008A               	movwf	10
  2007  0214  0E71               	swapf	??_isr+1,w
  2008  0215  0083               	movwf	3
  2009  0216  0EFE               	swapf	btemp,f
  2010  0217  0E7E               	swapf	btemp,w
  2011  0218  0009               	retfie
  2012  0219                     __end_of_isr:
  2013  007E                     btemp	set	126	;btemp
  2014  007E                     wtemp0	set	126
  2015                           
  2016                           	psect	intentry
  2017  0004                     __pintentry:	
  2018                           ;incstack = 0
  2019                           ; Regs used in _isr: [wreg+status,2+status,0]
  2020                           
  2021  0004                     interrupt_function:
  2022  007E                     saved_w	set	btemp
  2023  0004  00FE               	movwf	btemp
  2024  0005  0E03               	swapf	3,w
  2025  0006  00F1               	movwf	??_isr+1
  2026  0007  080A               	movf	10,w
  2027  0008  00F2               	movwf	??_isr+2
  2028  0009  120A  118A  29D2   	ljmp	_isr
  2029                           
  2030                           	psect	config
  2031                           
  2032                           ;Config register CONFIG1 @ 0x2007
  2033                           ;	Oscillator Selection bits
  2034                           ;	FOSC = INTRC_NOCLKOUT, INTOSCIO oscillator: I/O function on RA6/OSC2/CLKOUT pin, I/O f
      +                          unction on RA7/OSC1/CLKIN
  2035                           ;	Watchdog Timer Enable bit
  2036                           ;	WDTE = OFF, WDT disabled and can be enabled by SWDTEN bit of the WDTCON register
  2037                           ;	Power-up Timer Enable bit
  2038                           ;	PWRTE = OFF, PWRT disabled
  2039                           ;	RE3/MCLR pin function select bit
  2040                           ;	MCLRE = ON, RE3/MCLR pin function is MCLR
  2041                           ;	Code Protection bit
  2042                           ;	CP = OFF, Program memory code protection is disabled
  2043                           ;	Data Code Protection bit
  2044                           ;	CPD = OFF, Data memory code protection is disabled
  2045                           ;	Brown Out Reset Selection bits
  2046                           ;	BOREN = OFF, BOR disabled
  2047                           ;	Internal External Switchover bit
  2048                           ;	IESO = OFF, Internal/External Switchover mode is disabled
  2049                           ;	Fail-Safe Clock Monitor Enabled bit
  2050                           ;	FCMEN = OFF, Fail-Safe Clock Monitor is disabled
  2051                           ;	Low Voltage Programming Enable bit
  2052                           ;	LVP = OFF, RB3 pin has digital I/O, HV on MCLR must be used for programming
  2053                           ;	In-Circuit Debugger Mode bit
  2054                           ;	DEBUG = 0x1, unprogrammed default
  2055  2007                     	org	8199
  2056  2007  20F4               	dw	8436
  2057                           
  2058                           ;Config register CONFIG2 @ 0x2008
  2059                           ;	Brown-out Reset Selection bit
  2060                           ;	BOR4V = BOR40V, Brown-out Reset set to 4.0V
  2061                           ;	Flash Program Memory Self Write Enable bits
  2062                           ;	WRT = OFF, Write protection off
  2063  2008                     	org	8200
  2064  2008  3FFF               	dw	16383

Data Sizes:
    Strings     0
    Constant    0
    Data        32
    BSS         5
    Persistent  1
    Stack       0

Auto Spaces:
    Space          Size  Autos    Used
    COMMON           14      8      11
    BANK0            80     10      45
    BANK1            80      0       0
    BANK3            96      0       0
    BANK2            96      0       0

Pointer List with Targets:

    None.

Critical Paths under _main in COMMON

    _SEGcodigo->___awdiv

Critical Paths under _isr in COMMON

    None.

Critical Paths under _main in BANK0

    _main->_SEGcodigo
    _SEGcodigo->___awdiv

Critical Paths under _isr in BANK0

    None.

Critical Paths under _main in BANK1

    None.

Critical Paths under _isr in BANK1

    None.

Critical Paths under _main in BANK3

    None.

Critical Paths under _isr in BANK3

    None.

Critical Paths under _main in BANK2

    None.

Critical Paths under _isr in BANK2

    None.

Call Graph Tables:

 ---------------------------------------------------------------------------------
 (Depth) Function   	        Calls       Base Space   Used Autos Params    Refs
 ---------------------------------------------------------------------------------
 (0) _main                                                 1     1      0    1153
                                              9 BANK0      1     1      0
                                _ADC
                          _SEGcodigo
                              _delay
                              _setup
 ---------------------------------------------------------------------------------
 (1) _setup                                                1     1      0       0
                                              3 COMMON     1     1      0
 ---------------------------------------------------------------------------------
 (1) _delay                                                5     5      0      60
                                              3 COMMON     4     4      0
 ---------------------------------------------------------------------------------
 (1) _SEGcodigo                                            5     4      1     929
                                              4 BANK0      5     4      1
                            ___awdiv
 ---------------------------------------------------------------------------------
 (2) ___awdiv                                              9     5      4     625
                                              3 COMMON     5     1      4
                                              0 BANK0      4     4      0
 ---------------------------------------------------------------------------------
 (1) _ADC                                                  4     3      1     164
                                              3 COMMON     4     3      1
 ---------------------------------------------------------------------------------
 Estimated maximum stack depth 2
 ---------------------------------------------------------------------------------
 (Depth) Function   	        Calls       Base Space   Used Autos Params    Refs
 ---------------------------------------------------------------------------------
 (3) _isr                                                  3     3      0       0
                                              0 COMMON     3     3      0
 ---------------------------------------------------------------------------------
 Estimated maximum stack depth 3
 ---------------------------------------------------------------------------------

 Call Graph Graphs:

 _main (ROOT)
   _ADC
   _SEGcodigo
     ___awdiv
   _delay
   _setup

 _isr (ROOT)

 Address spaces:
Name               Size   Autos  Total    Cost      Usage
BANK3               60      0       0       9        0.0%
BITBANK3            60      0       0       8        0.0%
SFR3                 0      0       0       4        0.0%
BITSFR3              0      0       0       4        0.0%
BANK2               60      0       0      11        0.0%
BITBANK2            60      0       0      10        0.0%
SFR2                 0      0       0       5        0.0%
BITSFR2              0      0       0       5        0.0%
BANK1               50      0       0       7        0.0%
BITBANK1            50      0       0       6        0.0%
SFR1                 0      0       0       2        0.0%
BITSFR1              0      0       0       2        0.0%
BANK0               50      A      2D       5       56.2%
BITBANK0            50      0       0       4        0.0%
SFR0                 0      0       0       1        0.0%
BITSFR0              0      0       0       1        0.0%
COMMON               E      8       B       1       78.6%
BITCOMMON            E      0       0       0        0.0%
CODE                 0      0       0       0        0.0%
DATA                 0      0      38      12        0.0%
ABS                  0      0      38       3        0.0%
NULL                 0      0       0       0        0.0%
STACK                0      0       0       2        0.0%
EEDATA             100      0       0       0        0.0%


Microchip Technology PIC Macro Assembler V2.31 build 20201012212115 
Symbol Table                                                                                   Tue Feb 09 21:14:21 2021

                      pc 0002                       l94 0291                       l87 01CD  
           ___awdiv@sign 0041                       fsr 0004                      l101 02BC  
                    l130 0074                      l131 007F                      l124 003F  
                    l133 0096                      l134 00A1                      l126 0048  
                    l135 00AC                      l127 0053                      l136 00B7  
                    l128 005E                      l137 00C2                      l129 0069  
                    l138 00CD                      l412 017D                      l173 0256  
                    l159 0114                      _ADC 0026                      l853 0292  
                    l871 02AF                      l865 0296                      l867 029C  
                    l859 0294                      l869 02A9                      u110 02A9  
                    u111 02A8                      u120 02BC                      u121 02BB  
                    u115 02A5                      u125 02B8                      u400 0111  
                    u401 0110                      u610 015B                      u611 015A  
                    u700 01CB                      u605 014B                      u701 01CA  
                    u390 003B                      u630 016F                      u550 011C  
                    u391 003A                      u631 016E                      u615 0157  
                    u551 011B                      u640 0174                      u560 0127  
                    u641 0173                      u625 0163                      u561 0126  
                    u570 0138                      u650 0221                      u571 0137  
                    u651 0220                      u660 0236                      u661 0235  
                    u590 014A                      u670 0198                      u591 0149  
                    u671 0197                      u680 01AE                      u585 013C  
                    u681 01AD                      u694 01C3                      u695 01C1  
                    _isr 01D2                      fsr0 0004                      indf 0000  
                   ?_ADC 0073                     l1111 0265                     l1201 0111  
                   l1121 0274                     l1113 0268                     l1131 027D  
                   l1123 0277                     l1115 026B                     l1107 0257  
                   l1141 0284                     l1133 027E                     l1125 027A  
                   l1117 026E                     l1109 0261                     l1151 0027  
                   l1143 0285                     l1135 0281                     l1127 027B  
                   l1119 0271                     l1161 0033                     l1153 002A  
                   l1145 0286                     l1137 0282                     l1129 027C  
                   l1401 0189                     l1171 0062                     l1163 003B  
                   l1155 002E                     l1147 028A                     l1139 0283  
                   l1411 01A3                     l1403 0190                     l1181 008C  
                   l1173 006D                     l1165 0043                     l1157 0031  
                   l1341 0115                     l1149 0290                     l1421 01B9  
                   l1413 01A6                     l1405 0193                     l1191 00C6  
                   l1183 009A                     l1175 0078                     l1167 004C  
                   l1159 0032                     l1351 0127                     l1343 0118  
                   l1407 0198                     l1415 01A9                     l1193 00D1  
                   l1185 00A5                     l1177 0083                     l1169 0057  
                   l1361 013B                     l1353 012C                     l1345 011C  
                   l1417 01AE                     l1425 01BD                     l1409 0199  
                   l1187 00B0                     l1179 0089                     l1371 0161  
                   l1363 0142                     l1355 0130                     l1347 0121  
                   l1427 01CB                     l1419 01AF                     l1189 00BB  
                   l1197 00D8                     l1381 0179                     l1373 0162  
                   l1365 0146                     l1357 0132                     l1349 0123  
                   l1199 010C                     l1375 0169                     l1367 014A  
                   l1359 0138                     l1391 0231                     l1449 00E0  
                   l1369 015B                     l1377 016F                     l1393 0236  
                   l1385 021C                     l1379 0174                     l1395 024C  
                   l1387 0221                     l1389 0226                     l1397 017E  
                   l1399 0183                     ?_isr 0070                     i1l68 01E1  
                   i1l77 0212                     _main 017E                     btemp 007E  
                   start 000C                    ??_ADC 0074                    ??_isr 0070  
                  ?_main 0070          __end_of___awdiv 017E                    _ANSEL 0188  
        ___awdiv@divisor 0073          ___awdiv@counter 0040                    u50_20 020C  
                  u50_21 020B                    u43_20 01D6                    u43_21 01D5  
                  _PORTA 0005                    _PORTB 0006                    _PORTC 0007  
                  _PORTD 0008                    _PORTE 0009                    u44_20 01DC  
                  u44_21 01DB                    u45_20 01E5                    u45_21 01E4  
                  u46_20 01EE                    u46_21 01ED                    u47_20 01F8  
                  u47_21 01F7                    u48_20 0200                    u48_21 01FF  
                  u49_20 0205                    u49_21 0204                    _TRISA 0085  
                  _TRISB 0086                    _TRISC 0087                    _TRISD 0088  
                  _TRISE 0089       __size_of_SEGcodigo 003E                    _delay 0292  
                  _hexa1 004A                    _hexa2 004B                    _setup 0257  
                  pclath 000A                    status 0003                    wtemp0 007E  
        __initialization 000F             __end_of_main 01D2                   ADC@ANA 0076  
                 ??_main 0049          SEGcodigo@unidad 0048                   ?_delay 0070  
                 _CAMBIO 0078                   _ADRESH 001E         ___awdiv@dividend 0075  
                 ?_setup 0070                   _ANSELH 0189                   i1l1261 01E5  
                 i1l1271 01F3                   i1l1263 01E7                   i1l1255 01D2  
                 i1l1281 0205                   i1l1273 01F4                   i1l1257 01D6  
                 i1l1265 01E8                   i1l1283 0207                   i1l1275 01F8  
                 i1l1267 01EE                   i1l1259 01DC                   i1l1285 020C  
                 i1l1277 01FA                   i1l1269 01F2                   i1l1287 020E  
                 i1l1279 0200        __end_of_SEGcodigo 0257                ??___awdiv 0077  
                 delay@i 0073                   delay@j 0075                   delay@n 0070  
       ___awdiv@quotient 0042                   saved_w 007E  __end_of__initialization 0022  
         ADC@justificado 0073           __pcstackCOMMON 0070             __pidataBANK0 02BD  
          __end_of_delay 02BD            __end_of_setup 0292           _OPTION_REGbits 0081  
                ??_delay 0073                  ??_setup 0073               __pbssBANK0 004A  
             __pmaintext 017E               __pintentry 0004                  ___awdiv 0115  
              _ANSELbits 0188                  __ptext1 0257                  __ptext2 0292  
                __ptext3 0219                  __ptext4 0115                  __ptext5 0026  
                __ptext6 01D2             __size_of_ADC 00EF             __size_of_isr 0047  
                _numeros 0020     end_of_initialization 0022                _SEGcodigo 0219  
              _PORTAbits 0005                _PORTBbits 0006                _TRISAbits 0085  
              _TRISBbits 0086                _TRISEbits 0089               ?_SEGcodigo 0044  
    start_initialization 000F              __end_of_ADC 0115              __end_of_isr 0219  
             init_fetch0 02DD              __pdataBANK0 0020        SEGcodigo@contador 0044  
            __pbssCOMMON 0078                ___latbits 0002            __pcstackBANK0 0040  
              __pnvBANK0 004C                 ?___awdiv 0073              ??_SEGcodigo 0045  
         __size_of_delay 002B           __size_of_setup 003B        interrupt_function 0004  
               _IOCBbits 0096                 _PIE1bits 008C                 _PIR1bits 000C  
              _preloadt0 004C                _resultado 007A               _ADCON0bits 001F  
             _ADCON1bits 009F         __size_of___awdiv 0069               _ANSELHbits 0189  
               _contador 0079            __size_of_main 0054               _INTCONbits 000B  
               init_ram0 02E1                 intlevel1 0000  
